
boot_hv.elf:     file format elf32-avr
boot_hv.elf
architecture: avr:25, flags 0x00000112:
EXEC_P, HAS_SYMS, D_PAGED
start address 0x00001500

Program Header:
    LOAD off    0x00000094 vaddr 0x00001500 paddr 0x00001500 align 2**1
         filesz 0x00000af8 memsz 0x00000af8 flags r-x
    LOAD off    0x00000b8c vaddr 0x00800060 paddr 0x00001ff8 align 2**0
         filesz 0x00000002 memsz 0x00000002 flags rw-
    LOAD off    0x00000b8e vaddr 0x00800062 paddr 0x00800062 align 2**0
         filesz 0x00000000 memsz 0x000000c6 flags rw-

Sections:
Idx Name          Size      VMA       LMA       File off  Algn
  0 .text         00000af8  00001500  00001500  00000094  2**1
                  CONTENTS, ALLOC, LOAD, READONLY, CODE
  1 .data         00000002  00800060  00001ff8  00000b8c  2**0
                  CONTENTS, ALLOC, LOAD, DATA
  2 .bss          000000c6  00800062  00800062  00000b8e  2**0
                  ALLOC
  3 .stab         000006cc  00000000  00000000  00000b90  2**2
                  CONTENTS, READONLY, DEBUGGING
  4 .stabstr      00000054  00000000  00000000  0000125c  2**0
                  CONTENTS, READONLY, DEBUGGING
  5 .comment      00000011  00000000  00000000  000012b0  2**0
                  CONTENTS, READONLY
SYMBOL TABLE:
00001500 l    d  .text	00000000 .text
00800060 l    d  .data	00000000 .data
00800062 l    d  .bss	00000000 .bss
00000000 l    d  .stab	00000000 .stab
00000000 l    d  .stabstr	00000000 .stabstr
00000000 l    d  .comment	00000000 .comment
00000000 l    df *ABS*	00000000 boot.c
0000003e l       *ABS*	00000000 __SP_H__
0000003d l       *ABS*	00000000 __SP_L__
0000003f l       *ABS*	00000000 __SREG__
00000000 l       *ABS*	00000000 __tmp_reg__
00000001 l       *ABS*	00000000 __zero_reg__
000018c8 l     F .text	0000003e write_word
008000f9 l     O .bss	00000002 cur_addr
008000f6 l     O .bss	00000001 dirty
00001906 l     F .text	0000008a finalize_flash_if_dirty
00800066 l     O .bss	00000080 fake_page
00800064 l     O .bss	00000001 last_page_used
00001990 l     F .text	00000402 usbPoll
008000fd l     O .bss	00000001 usbMsgFlags
008000f3 l     O .bss	00000001 idle_cnt2
008000f4 l     O .bss	00000002 idle_cnt
008000fc l     O .bss	00000001 usb_maybe_finalizing
008000e9 l     O .bss	00000008 buffer
008000e8 l     O .bss	00000001 full_erase_requested
008000e7 l     O .bss	00000001 need_write_page
008000f1 l     O .bss	00000001 remaining
008000fb l     O .bss	00000001 usb_has_activity
008000f2 l     O .bss	00000001 cmd0
00800060 l     O .data	00000001 usbMsgLen
00800065 l     O .bss	00000001 fake_page_used
00800063 l     O .bss	00000001 wasReset.1966
008000f7 l     O .bss	00000002 erase_addr
008000e6 l     O .bss	00000001 blink_cnt
00000000 l    df *ABS*	00000000 _clear_bss.o
000015b0 l       .text	00000000 .do_clear_bss_start
000015ae l       .text	00000000 .do_clear_bss_loop
00000000 l    df *ABS*	00000000 usbdrv/usbdrvasm_hv.o
000015e0 l       .text	00000000 usbCrcLoopEntry
000015ce l       .text	00000000 usbCrcByteLoop
000015d2 l       .text	00000000 usbCrcBitLoop
000015dc l       .text	00000000 usbCrcNoXor
000015e4 l       .text	00000000 usbCrcReady
000015f4 l       .text	00000000 usbMFTime16
00001612 l       .text	00000000 usbMFTimeout
000015f8 l       .text	00000000 usbMFWaitStrobe
00001600 l       .text	00000000 usbMFWaitIdle
00001608 l       .text	00000000 usbMFWaitLoop
0000162a l       .text	00000000 cleanupBootloaderIntStack
00001622 l       .text	00000000 cleanupAndJumpToApp
0000162c l       .text	00000000 waitForJ
00001632 l       .text	00000000 waitForK
0000164c l       .text	00000000 foundK
000017f2 l       .text	00000000 sofError
00001666 l       .text	00000000 haveTwoBitsK
0000174c l       .text	00000000 rxbit1
00001682 l       .text	00000000 continueWithBit5
000016c6 l       .text	00000000 unstuff5
000016a2 l       .text	00000000 didUnstuff6
000016e4 l       .text	00000000 unstuff6
000016a8 l       .text	00000000 didUnstuff5
000016b2 l       .text	00000000 didUnstuff7
00001736 l       .text	00000000 rxLoop
000016bc l       .text	00000000 unstuff7
000016ee l       .text	00000000 unstuff0
00001752 l       .text	00000000 didUnstuff0
00001702 l       .text	00000000 unstuff1
00001762 l       .text	00000000 didUnstuff1
00001710 l       .text	00000000 unstuff2
00001778 l       .text	00000000 didUnstuff2
0000171e l       .text	00000000 unstuff3
0000178a l       .text	00000000 didUnstuff3
0000172e l       .text	00000000 unstuff4
00001796 l       .text	00000000 didUnstuff4
000017aa l       .text	00000000 se0
000017a2 l       .text	00000000 overflow
000017a6 l       .text	00000000 ignorePacket
000017d8 l       .text	00000000 storeTokenAndReturn
000017fa l       .text	00000000 handleData
00001824 l       .text	00000000 handleIn
000017d8 l       .text	00000000 handleSetupOrOut
000017dc l       .text	00000000 doReturn
00001852 l       .text	00000000 sendNakAndReti
00001856 l       .text	00000000 sendAckAndReti
00001858 l       .text	00000000 sendCntAndReti
00001860 l       .text	00000000 usbSendAndReti
00001840 l       .text	00000000 bitstuff7
0000188a l       .text	00000000 didStuff7
00001848 l       .text	00000000 bitstuffN
0000187a l       .text	00000000 didStuffN
00001870 l       .text	00000000 byteloop
00001870 l       .text	00000000 bitloop
000018ac l       .text	00000000 skipAddrAssign
000018bc l       .text	00000000 se0Delay
00000000 l    df *ABS*	00000000 osccal.c
0000003e l       *ABS*	00000000 __SP_H__
0000003d l       *ABS*	00000000 __SP_L__
0000003f l       *ABS*	00000000 __SREG__
00000000 l       *ABS*	00000000 __tmp_reg__
00000001 l       *ABS*	00000000 __zero_reg__
00000000 l    df *ABS*	00000000 _exit.o
00001ff6 l       .text	00000000 __stop_program
00000000 l    df *ABS*	00000000 
00001530 g     O .text	00000012 usbDescriptorDevice
000015ba  w      .text	00000000 __vector_1
008000fe g     O .bss	0000000b usbTxBuf
00001f72 g     F .text	00000082 calibrateOscillator
0000156e g       .text	00000000 __trampolines_start
00001ff8 g       .text	00000000 _etext
0000156a g     O .text	00000004 usbDescriptorString0
000015ba  w      .text	00000000 __vector_12
000015ba g       .text	00000000 __bad_interrupt
00001ffa g       *ABS*	00000000 __data_load_end
000015ba  w      .text	00000000 __vector_6
000015bc g       .text	00000000 usbCrc16
0000156e g       .text	00000000 __trampolines_end
000015ba  w      .text	00000000 __vector_3
00001ff8 g       *ABS*	00000000 __data_load_start
0000156e g       .text	00000000 __dtors_end
00800128 g       .bss	00000000 __bss_end
000015ba  w      .text	00000000 __vector_11
0000156e  w      .text	00000000 __init
000015ba  w      .text	00000000 __vector_13
000015e6 g       .text	00000000 usbCrc16Append
000015ba  w      .text	00000000 __vector_7
0000151e g     O .text	00000012 usbDescriptorConfiguration
000015a6 g       .text	00000010 .hidden __do_clear_bss
00800109 g     O .bss	00000001 usbDeviceAddr
00810000 g       .stab	00000000 __eeprom_end
0080010a g     O .bss	00000001 usbRxToken
00001500 g       .text	00000000 __vectors
00800062 g       .data	00000000 __data_end
0000154a g     O .text	00000020 usbDescriptorStringVendor
0080010b g     O .bss	00000001 usbInputBufOffset
00001500  w      .text	00000000 __vector_default
000015ba  w      .text	00000000 __vector_5
0000156e g       .text	00000000 __ctors_start
00001590 g       .text	00000016 .hidden __do_copy_data
00800062 g       .bss	00000000 __bss_start
00001d92 g     F .text	000001e0 main
000015ba  w      .text	00000000 __vector_4
00800061 g     O .data	00000001 usbTxLen
00000000  w      *ABS*	00000000 __heap_end
000015ba  w      .text	00000000 __vector_9
0000157a g     F .text	00000016 power_up
00001614 g     F .text	00000000 __vector_2
00800062 g     O .bss	00000001 usbHasRxed
0080010c g     O .bss	00000002 usbMsgPtr
0080010e g     O .bss	00000001 usbRxLen
0000156e g       .text	00000000 __dtors_start
0000156e g       .text	00000000 __ctors_end
0000025f  w      *ABS*	00000000 __stack
0080010f g     O .bss	00000001 usbNewDeviceAddr
00800062 g       .data	00000000 _edata
00800128 g       .stab	00000000 _end
000015ba  w      .text	00000000 __vector_8
00001ff4  w      .text	00000000 .hidden exit
00800110 g     O .bss	00000001 usbCurrentTok
00001542 g     O .text	00000008 usbDescriptorStringDevice
00001ff4 g       .text	00000000 .hidden _exit
00800111 g     O .bss	00000001 usbConfiguration
000015ba  w      .text	00000000 __vector_14
000015ba  w      .text	00000000 __vector_10
00800112 g     O .bss	00000016 usbRxBuf
00800060 g       .data	00000000 __data_start
000015ee g       .text	00000000 usbMeasureFrameLength



Disassembly of section .text:

00001500 <__vectors>:
    1500:	36 c0       	rjmp	.+108    	; 0x156e <__ctors_end>
    1502:	5b c0       	rjmp	.+182    	; 0x15ba <__bad_interrupt>
    1504:	87 c0       	rjmp	.+270    	; 0x1614 <__vector_2>
    1506:	59 c0       	rjmp	.+178    	; 0x15ba <__bad_interrupt>
    1508:	58 c0       	rjmp	.+176    	; 0x15ba <__bad_interrupt>
    150a:	57 c0       	rjmp	.+174    	; 0x15ba <__bad_interrupt>
    150c:	56 c0       	rjmp	.+172    	; 0x15ba <__bad_interrupt>
    150e:	55 c0       	rjmp	.+170    	; 0x15ba <__bad_interrupt>
    1510:	54 c0       	rjmp	.+168    	; 0x15ba <__bad_interrupt>
    1512:	53 c0       	rjmp	.+166    	; 0x15ba <__bad_interrupt>
    1514:	52 c0       	rjmp	.+164    	; 0x15ba <__bad_interrupt>
    1516:	51 c0       	rjmp	.+162    	; 0x15ba <__bad_interrupt>
    1518:	50 c0       	rjmp	.+160    	; 0x15ba <__bad_interrupt>
    151a:	4f c0       	rjmp	.+158    	; 0x15ba <__bad_interrupt>
    151c:	4e c0       	rjmp	.+156    	; 0x15ba <__bad_interrupt>

0000151e <usbDescriptorConfiguration>:
    151e:	09 02       	muls	r16, r25
    1520:	12 00       	.word	0x0012	; ????
    1522:	01 01       	movw	r0, r2
    1524:	00 80       	ld	r0, Z
    1526:	32 09       	sbc	r19, r2
    1528:	04 00       	.word	0x0004	; ????
    152a:	00 00       	nop
    152c:	00 00       	nop
    152e:	00 00       	nop

00001530 <usbDescriptorDevice>:
    1530:	12 01       	movw	r2, r4
    1532:	10 01       	movw	r2, r0
    1534:	ff 00       	.word	0x00ff	; ????
    1536:	00 08       	sbc	r0, r0
    1538:	09 12       	cpse	r0, r25
    153a:	01 eb       	ldi	r16, 0xB1	; 177
    153c:	00 01       	movw	r0, r0
    153e:	01 02       	muls	r16, r17
    1540:	00 01       	movw	r0, r0

00001542 <usbDescriptorStringDevice>:
    1542:	08 03       	fmul	r16, r16
    1544:	45 00       	.word	0x0045	; ????
    1546:	42 00       	.word	0x0042	; ????
    1548:	31 00       	.word	0x0031	; ????

0000154a <usbDescriptorStringVendor>:
    154a:	20 03       	mulsu	r18, r16
    154c:	52 00       	.word	0x0052	; ????
    154e:	6f 00       	.word	0x006f	; ????
    1550:	62 00       	.word	0x0062	; ????
    1552:	6f 00       	.word	0x006f	; ????
    1554:	74 00       	.word	0x0074	; ????
    1556:	4d 00       	.word	0x004d	; ????
    1558:	61 00       	.word	0x0061	; ????
    155a:	6b 00       	.word	0x006b	; ????
    155c:	65 00       	.word	0x0065	; ????
    155e:	72 00       	.word	0x0072	; ????
    1560:	2e 00       	.word	0x002e	; ????
    1562:	63 00       	.word	0x0063	; ????
    1564:	6c 00       	.word	0x006c	; ????
    1566:	75 00       	.word	0x0075	; ????
    1568:	62 00       	.word	0x0062	; ????

0000156a <usbDescriptorString0>:
    156a:	04 03       	mulsu	r16, r20
    156c:	09 04       	cpc	r0, r9

0000156e <__ctors_end>:
    156e:	11 24       	eor	r1, r1
    1570:	1f be       	out	0x3f, r1	; 63
    1572:	cf e5       	ldi	r28, 0x5F	; 95
    1574:	d2 e0       	ldi	r29, 0x02	; 2
    1576:	de bf       	out	0x3e, r29	; 62
    1578:	cd bf       	out	0x3d, r28	; 61

0000157a <power_up>:
    157a:	84 b7       	in	r24, 0x34	; 52
    157c:	87 7f       	andi	r24, 0xF7	; 247
    157e:	84 bf       	out	0x34, r24	; 52
    1580:	88 e1       	ldi	r24, 0x18	; 24
    1582:	0f b6       	in	r0, 0x3f	; 63
    1584:	f8 94       	cli
    1586:	81 bd       	out	0x21, r24	; 33
    1588:	11 bc       	out	0x21, r1	; 33
    158a:	0f be       	out	0x3f, r0	; 63
    158c:	0a ea       	ldi	r16, 0xAA	; 170
    158e:	0f 93       	push	r16

00001590 <__do_copy_data>:
    1590:	10 e0       	ldi	r17, 0x00	; 0
    1592:	a0 e6       	ldi	r26, 0x60	; 96
    1594:	b0 e0       	ldi	r27, 0x00	; 0
    1596:	e8 ef       	ldi	r30, 0xF8	; 248
    1598:	ff e1       	ldi	r31, 0x1F	; 31
    159a:	02 c0       	rjmp	.+4      	; 0x15a0 <__do_copy_data+0x10>
    159c:	05 90       	lpm	r0, Z+
    159e:	0d 92       	st	X+, r0
    15a0:	a2 36       	cpi	r26, 0x62	; 98
    15a2:	b1 07       	cpc	r27, r17
    15a4:	d9 f7       	brne	.-10     	; 0x159c <__do_copy_data+0xc>

000015a6 <__do_clear_bss>:
    15a6:	11 e0       	ldi	r17, 0x01	; 1
    15a8:	a2 e6       	ldi	r26, 0x62	; 98
    15aa:	b0 e0       	ldi	r27, 0x00	; 0
    15ac:	01 c0       	rjmp	.+2      	; 0x15b0 <.do_clear_bss_start>

000015ae <.do_clear_bss_loop>:
    15ae:	1d 92       	st	X+, r1

000015b0 <.do_clear_bss_start>:
    15b0:	a8 32       	cpi	r26, 0x28	; 40
    15b2:	b1 07       	cpc	r27, r17
    15b4:	e1 f7       	brne	.-8      	; 0x15ae <.do_clear_bss_loop>
    15b6:	ed d3       	rcall	.+2010   	; 0x1d92 <main>
    15b8:	1d c5       	rjmp	.+2618   	; 0x1ff4 <_exit>

000015ba <__bad_interrupt>:
    15ba:	a2 cf       	rjmp	.-188    	; 0x1500 <__vectors>

000015bc <usbCrc16>:
    15bc:	a8 2f       	mov	r26, r24
    15be:	b9 2f       	mov	r27, r25
    15c0:	80 e0       	ldi	r24, 0x00	; 0
    15c2:	90 e0       	ldi	r25, 0x00	; 0
    15c4:	41 e0       	ldi	r20, 0x01	; 1
    15c6:	50 ea       	ldi	r21, 0xA0	; 160
    15c8:	60 95       	com	r22
    15ca:	30 e0       	ldi	r19, 0x00	; 0
    15cc:	09 c0       	rjmp	.+18     	; 0x15e0 <usbCrcLoopEntry>

000015ce <usbCrcByteLoop>:
    15ce:	2d 91       	ld	r18, X+
    15d0:	82 27       	eor	r24, r18

000015d2 <usbCrcBitLoop>:
    15d2:	97 95       	ror	r25
    15d4:	87 95       	ror	r24
    15d6:	10 f0       	brcs	.+4      	; 0x15dc <usbCrcNoXor>
    15d8:	84 27       	eor	r24, r20
    15da:	95 27       	eor	r25, r21

000015dc <usbCrcNoXor>:
    15dc:	30 5e       	subi	r19, 0xE0	; 224
    15de:	c8 f3       	brcs	.-14     	; 0x15d2 <usbCrcBitLoop>

000015e0 <usbCrcLoopEntry>:
    15e0:	6f 5f       	subi	r22, 0xFF	; 255
    15e2:	a8 f3       	brcs	.-22     	; 0x15ce <usbCrcByteLoop>

000015e4 <usbCrcReady>:
    15e4:	08 95       	ret

000015e6 <usbCrc16Append>:
    15e6:	ea df       	rcall	.-44     	; 0x15bc <usbCrc16>
    15e8:	8d 93       	st	X+, r24
    15ea:	9d 93       	st	X+, r25
    15ec:	08 95       	ret

000015ee <usbMeasureFrameLength>:
    15ee:	a6 e0       	ldi	r26, 0x06	; 6
    15f0:	88 27       	eor	r24, r24
    15f2:	99 27       	eor	r25, r25

000015f4 <usbMFTime16>:
    15f4:	aa 95       	dec	r26
    15f6:	69 f0       	breq	.+26     	; 0x1612 <usbMFTimeout>

000015f8 <usbMFWaitStrobe>:
    15f8:	01 97       	sbiw	r24, 0x01	; 1
    15fa:	e1 f3       	breq	.-8      	; 0x15f4 <usbMFTime16>
    15fc:	b3 99       	sbic	0x16, 3	; 22
    15fe:	fc cf       	rjmp	.-8      	; 0x15f8 <usbMFWaitStrobe>

00001600 <usbMFWaitIdle>:
    1600:	b3 9b       	sbis	0x16, 3	; 22
    1602:	fe cf       	rjmp	.-4      	; 0x1600 <usbMFWaitIdle>
    1604:	81 e0       	ldi	r24, 0x01	; 1
    1606:	99 27       	eor	r25, r25

00001608 <usbMFWaitLoop>:
    1608:	a6 b3       	in	r26, 0x16	; 22
    160a:	01 96       	adiw	r24, 0x01	; 1
    160c:	11 f0       	breq	.+4      	; 0x1612 <usbMFTimeout>
    160e:	a8 71       	andi	r26, 0x18	; 24
    1610:	d9 f7       	brne	.-10     	; 0x1608 <usbMFWaitLoop>

00001612 <usbMFTimeout>:
    1612:	08 95       	ret

00001614 <__vector_2>:
    1614:	cf 93       	push	r28
    1616:	cf b7       	in	r28, 0x3f	; 63
    1618:	cf 93       	push	r28
    161a:	c0 91 5f 02 	lds	r28, 0x025F
    161e:	ca 3a       	cpi	r28, 0xAA	; 170
    1620:	21 f0       	breq	.+8      	; 0x162a <cleanupBootloaderIntStack>

00001622 <cleanupAndJumpToApp>:
    1622:	cf 91       	pop	r28
    1624:	cf bf       	out	0x3f, r28	; 63
    1626:	cf 91       	pop	r28
    1628:	69 cf       	rjmp	.-302    	; 0x14fc <__stack+0x129d>

0000162a <cleanupBootloaderIntStack>:
    162a:	cc 27       	eor	r28, r28

0000162c <waitForJ>:
    162c:	c3 95       	inc	r28
    162e:	b3 9b       	sbis	0x16, 3	; 22
    1630:	e9 f7       	brne	.-6      	; 0x162c <waitForJ>

00001632 <waitForK>:
    1632:	b3 9b       	sbis	0x16, 3	; 22
    1634:	0b c0       	rjmp	.+22     	; 0x164c <foundK>
    1636:	b3 9b       	sbis	0x16, 3	; 22
    1638:	09 c0       	rjmp	.+18     	; 0x164c <foundK>
    163a:	b3 9b       	sbis	0x16, 3	; 22
    163c:	07 c0       	rjmp	.+14     	; 0x164c <foundK>
    163e:	b3 9b       	sbis	0x16, 3	; 22
    1640:	05 c0       	rjmp	.+10     	; 0x164c <foundK>
    1642:	b3 9b       	sbis	0x16, 3	; 22
    1644:	03 c0       	rjmp	.+6      	; 0x164c <foundK>
    1646:	b3 9b       	sbis	0x16, 3	; 22
    1648:	01 c0       	rjmp	.+2      	; 0x164c <foundK>
    164a:	d3 c0       	rjmp	.+422    	; 0x17f2 <sofError>

0000164c <foundK>:
    164c:	0f 92       	push	r0
    164e:	df 93       	push	r29
    1650:	c0 91 0b 01 	lds	r28, 0x010B
    1654:	dd 27       	eor	r29, r29
    1656:	ce 5e       	subi	r28, 0xEE	; 238
    1658:	de 4f       	sbci	r29, 0xFE	; 254
    165a:	01 2e       	mov	r0, r17
    165c:	b3 9b       	sbis	0x16, 3	; 22
    165e:	03 c0       	rjmp	.+6      	; 0x1666 <haveTwoBitsK>
    1660:	df 91       	pop	r29
    1662:	0f 90       	pop	r0
    1664:	e6 cf       	rjmp	.-52     	; 0x1632 <waitForK>

00001666 <haveTwoBitsK>:
    1666:	2f 93       	push	r18
    1668:	0f 93       	push	r16
    166a:	1f 93       	push	r17
    166c:	4f 93       	push	r20
    166e:	2f ef       	ldi	r18, 0xFF	; 255
    1670:	4f 6f       	ori	r20, 0xFF	; 255
    1672:	06 b3       	in	r16, 0x16	; 22
    1674:	03 fb       	bst	r16, 3
    1676:	20 f9       	bld	r18, 0
    1678:	5f 93       	push	r21
    167a:	3f 93       	push	r19
    167c:	50 e0       	ldi	r21, 0x00	; 0
    167e:	3b e0       	ldi	r19, 0x0B	; 11
    1680:	65 c0       	rjmp	.+202    	; 0x174c <rxbit1>

00001682 <continueWithBit5>:
    1682:	16 b3       	in	r17, 0x16	; 22
    1684:	01 26       	eor	r0, r17
    1686:	50 29       	or	r21, r0
    1688:	53 fd       	sbrc	r21, 3
    168a:	c8 95       	lpm
    168c:	56 b3       	in	r21, 0x16	; 22
    168e:	01 27       	eor	r16, r17
    1690:	03 fb       	bst	r16, 3
    1692:	25 f9       	bld	r18, 5
    1694:	2f 73       	andi	r18, 0x3F	; 63
    1696:	06 b3       	in	r16, 0x16	; 22
    1698:	b1 f0       	breq	.+44     	; 0x16c6 <unstuff5>
    169a:	50 27       	eor	r21, r16
    169c:	10 27       	eor	r17, r16
    169e:	13 fb       	bst	r17, 3
    16a0:	26 f9       	bld	r18, 6

000016a2 <didUnstuff6>:
    16a2:	06 b2       	in	r0, 0x16	; 22
    16a4:	22 30       	cpi	r18, 0x02	; 2
    16a6:	f0 f0       	brcs	.+60     	; 0x16e4 <unstuff6>

000016a8 <didUnstuff5>:
    16a8:	00 c0       	rjmp	.+0      	; 0x16aa <didUnstuff5+0x2>
    16aa:	16 b3       	in	r17, 0x16	; 22
    16ac:	01 27       	eor	r16, r17
    16ae:	03 fb       	bst	r16, 3
    16b0:	27 f9       	bld	r18, 7

000016b2 <didUnstuff7>:
    16b2:	01 26       	eor	r0, r17
    16b4:	50 29       	or	r21, r0
    16b6:	06 b2       	in	r0, 0x16	; 22
    16b8:	24 30       	cpi	r18, 0x04	; 4
    16ba:	e8 f5       	brcc	.+122    	; 0x1736 <rxLoop>

000016bc <unstuff7>:
    16bc:	4f 77       	andi	r20, 0x7F	; 127
    16be:	20 68       	ori	r18, 0x80	; 128
    16c0:	16 b3       	in	r17, 0x16	; 22
    16c2:	00 00       	nop
    16c4:	f6 cf       	rjmp	.-20     	; 0x16b2 <didUnstuff7>

000016c6 <unstuff5>:
    16c6:	50 27       	eor	r21, r16
    16c8:	4f 7d       	andi	r20, 0xDF	; 223
    16ca:	20 62       	ori	r18, 0x20	; 32
    16cc:	06 b2       	in	r0, 0x16	; 22
    16ce:	10 2f       	mov	r17, r16
    16d0:	00 00       	nop
    16d2:	00 c0       	rjmp	.+0      	; 0x16d4 <unstuff5+0xe>
    16d4:	06 b3       	in	r16, 0x16	; 22
    16d6:	00 26       	eor	r0, r16
    16d8:	50 29       	or	r21, r0
    16da:	10 27       	eor	r17, r16
    16dc:	13 fb       	bst	r17, 3
    16de:	26 f9       	bld	r18, 6
    16e0:	06 b2       	in	r0, 0x16	; 22
    16e2:	e2 cf       	rjmp	.-60     	; 0x16a8 <didUnstuff5>

000016e4 <unstuff6>:
    16e4:	4f 7b       	andi	r20, 0xBF	; 191
    16e6:	06 b3       	in	r16, 0x16	; 22
    16e8:	20 64       	ori	r18, 0x40	; 64
    16ea:	00 c0       	rjmp	.+0      	; 0x16ec <unstuff6+0x8>
    16ec:	da cf       	rjmp	.-76     	; 0x16a2 <didUnstuff6>

000016ee <unstuff0>:
    16ee:	01 26       	eor	r0, r17
    16f0:	50 29       	or	r21, r0
    16f2:	18 71       	andi	r17, 0x18	; 24
    16f4:	06 b2       	in	r0, 0x16	; 22
    16f6:	69 f1       	breq	.+90     	; 0x1752 <didUnstuff0>
    16f8:	4e 7f       	andi	r20, 0xFE	; 254
    16fa:	21 60       	ori	r18, 0x01	; 1
    16fc:	01 2f       	mov	r16, r17
    16fe:	16 b3       	in	r17, 0x16	; 22
    1700:	28 c0       	rjmp	.+80     	; 0x1752 <didUnstuff0>

00001702 <unstuff1>:
    1702:	00 26       	eor	r0, r16
    1704:	50 29       	or	r21, r0
    1706:	4d 7f       	andi	r20, 0xFD	; 253
    1708:	06 b2       	in	r0, 0x16	; 22
    170a:	22 60       	ori	r18, 0x02	; 2
    170c:	10 2f       	mov	r17, r16
    170e:	29 c0       	rjmp	.+82     	; 0x1762 <didUnstuff1>

00001710 <unstuff2>:
    1710:	01 26       	eor	r0, r17
    1712:	50 29       	or	r21, r0
    1714:	4b 7f       	andi	r20, 0xFB	; 251
    1716:	06 b2       	in	r0, 0x16	; 22
    1718:	24 60       	ori	r18, 0x04	; 4
    171a:	01 2f       	mov	r16, r17
    171c:	2d c0       	rjmp	.+90     	; 0x1778 <didUnstuff2>

0000171e <unstuff3>:
    171e:	16 b3       	in	r17, 0x16	; 22
    1720:	01 26       	eor	r0, r17
    1722:	50 29       	or	r21, r0
    1724:	47 7f       	andi	r20, 0xF7	; 247
    1726:	28 60       	ori	r18, 0x08	; 8
    1728:	00 00       	nop
    172a:	06 b2       	in	r0, 0x16	; 22
    172c:	2e c0       	rjmp	.+92     	; 0x178a <didUnstuff3>

0000172e <unstuff4>:
    172e:	4f 7e       	andi	r20, 0xEF	; 239
    1730:	06 b3       	in	r16, 0x16	; 22
    1732:	20 61       	ori	r18, 0x10	; 16
    1734:	30 c0       	rjmp	.+96     	; 0x1796 <didUnstuff4>

00001736 <rxLoop>:
    1736:	42 27       	eor	r20, r18
    1738:	06 b3       	in	r16, 0x16	; 22
    173a:	49 93       	st	Y+, r20
    173c:	00 26       	eor	r0, r16
    173e:	50 29       	or	r21, r0
    1740:	10 27       	eor	r17, r16
    1742:	06 b2       	in	r0, 0x16	; 22
    1744:	4f ef       	ldi	r20, 0xFF	; 255
    1746:	13 fb       	bst	r17, 3
    1748:	20 f9       	bld	r18, 0
    174a:	29 7f       	andi	r18, 0xF9	; 249

0000174c <rxbit1>:
    174c:	16 b3       	in	r17, 0x16	; 22
    174e:	79 f2       	breq	.-98     	; 0x16ee <unstuff0>
    1750:	18 71       	andi	r17, 0x18	; 24

00001752 <didUnstuff0>:
    1752:	59 f1       	breq	.+86     	; 0x17aa <se0>
    1754:	01 26       	eor	r0, r17
    1756:	50 29       	or	r21, r0
    1758:	06 b2       	in	r0, 0x16	; 22
    175a:	01 27       	eor	r16, r17
    175c:	03 fb       	bst	r16, 3
    175e:	21 f9       	bld	r18, 1
    1760:	23 7f       	andi	r18, 0xF3	; 243

00001762 <didUnstuff1>:
    1762:	06 b3       	in	r16, 0x16	; 22
    1764:	71 f2       	breq	.-100    	; 0x1702 <unstuff1>
    1766:	00 26       	eor	r0, r16
    1768:	50 29       	or	r21, r0
    176a:	31 50       	subi	r19, 0x01	; 1
    176c:	d0 f0       	brcs	.+52     	; 0x17a2 <overflow>
    176e:	06 b2       	in	r0, 0x16	; 22
    1770:	10 27       	eor	r17, r16
    1772:	13 fb       	bst	r17, 3
    1774:	22 f9       	bld	r18, 2
    1776:	27 7e       	andi	r18, 0xE7	; 231

00001778 <didUnstuff2>:
    1778:	16 b3       	in	r17, 0x16	; 22
    177a:	51 f2       	breq	.-108    	; 0x1710 <unstuff2>
    177c:	01 26       	eor	r0, r17
    177e:	50 29       	or	r21, r0
    1780:	01 27       	eor	r16, r17
    1782:	03 fb       	bst	r16, 3
    1784:	06 b2       	in	r0, 0x16	; 22
    1786:	23 f9       	bld	r18, 3
    1788:	2f 7c       	andi	r18, 0xCF	; 207

0000178a <didUnstuff3>:
    178a:	49 f2       	breq	.-110    	; 0x171e <unstuff3>
    178c:	00 00       	nop
    178e:	06 b3       	in	r16, 0x16	; 22
    1790:	10 27       	eor	r17, r16
    1792:	13 fb       	bst	r17, 3
    1794:	24 f9       	bld	r18, 4

00001796 <didUnstuff4>:
    1796:	00 26       	eor	r0, r16
    1798:	50 29       	or	r21, r0
    179a:	06 b2       	in	r0, 0x16	; 22
    179c:	2f 79       	andi	r18, 0x9F	; 159
    179e:	39 f2       	breq	.-114    	; 0x172e <unstuff4>
    17a0:	70 cf       	rjmp	.-288    	; 0x1682 <continueWithBit5>

000017a2 <overflow>:
    17a2:	10 e2       	ldi	r17, 0x20	; 32
    17a4:	1a bf       	out	0x3a, r17	; 58

000017a6 <ignorePacket>:
    17a6:	00 27       	eor	r16, r16
    17a8:	17 c0       	rjmp	.+46     	; 0x17d8 <handleSetupOrOut>

000017aa <se0>:
    17aa:	3b 50       	subi	r19, 0x0B	; 11
    17ac:	31 95       	neg	r19
    17ae:	c3 1b       	sub	r28, r19
    17b0:	d0 40       	sbci	r29, 0x00	; 0
    17b2:	10 e2       	ldi	r17, 0x20	; 32
    17b4:	1a bf       	out	0x3a, r17	; 58
    17b6:	08 81       	ld	r16, Y
    17b8:	03 3c       	cpi	r16, 0xC3	; 195
    17ba:	f9 f0       	breq	.+62     	; 0x17fa <handleData>
    17bc:	0b 34       	cpi	r16, 0x4B	; 75
    17be:	e9 f0       	breq	.+58     	; 0x17fa <handleData>
    17c0:	20 91 09 01 	lds	r18, 0x0109
    17c4:	19 81       	ldd	r17, Y+1	; 0x01
    17c6:	11 0f       	add	r17, r17
    17c8:	12 13       	cpse	r17, r18
    17ca:	ed cf       	rjmp	.-38     	; 0x17a6 <ignorePacket>
    17cc:	09 36       	cpi	r16, 0x69	; 105
    17ce:	51 f1       	breq	.+84     	; 0x1824 <handleIn>
    17d0:	0d 32       	cpi	r16, 0x2D	; 45
    17d2:	11 f0       	breq	.+4      	; 0x17d8 <handleSetupOrOut>
    17d4:	01 3e       	cpi	r16, 0xE1	; 225
    17d6:	39 f7       	brne	.-50     	; 0x17a6 <ignorePacket>

000017d8 <handleSetupOrOut>:
    17d8:	00 93 10 01 	sts	0x0110, r16

000017dc <doReturn>:
    17dc:	3f 91       	pop	r19
    17de:	5f 91       	pop	r21
    17e0:	4f 91       	pop	r20
    17e2:	1f 91       	pop	r17
    17e4:	0f 91       	pop	r16
    17e6:	2f 91       	pop	r18
    17e8:	df 91       	pop	r29
    17ea:	0f 90       	pop	r0
    17ec:	ca b7       	in	r28, 0x3a	; 58
    17ee:	c5 fd       	sbrc	r28, 5
    17f0:	1d cf       	rjmp	.-454    	; 0x162c <waitForJ>

000017f2 <sofError>:
    17f2:	cf 91       	pop	r28
    17f4:	cf bf       	out	0x3f, r28	; 63
    17f6:	cf 91       	pop	r28
    17f8:	18 95       	reti

000017fa <handleData>:
    17fa:	20 91 10 01 	lds	r18, 0x0110
    17fe:	22 23       	and	r18, r18
    1800:	69 f3       	breq	.-38     	; 0x17dc <doReturn>
    1802:	10 91 0e 01 	lds	r17, 0x010E
    1806:	11 23       	and	r17, r17
    1808:	21 f5       	brne	.+72     	; 0x1852 <sendNakAndReti>
    180a:	34 30       	cpi	r19, 0x04	; 4
    180c:	22 f1       	brmi	.+72     	; 0x1856 <sendAckAndReti>
    180e:	30 93 0e 01 	sts	0x010E, r19
    1812:	20 93 0a 01 	sts	0x010A, r18
    1816:	10 91 0b 01 	lds	r17, 0x010B
    181a:	3b e0       	ldi	r19, 0x0B	; 11
    181c:	31 1b       	sub	r19, r17
    181e:	30 93 0b 01 	sts	0x010B, r19
    1822:	19 c0       	rjmp	.+50     	; 0x1856 <sendAckAndReti>

00001824 <handleIn>:
    1824:	00 91 0e 01 	lds	r16, 0x010E
    1828:	01 30       	cpi	r16, 0x01	; 1
    182a:	9c f4       	brge	.+38     	; 0x1852 <sendNakAndReti>
    182c:	0a e5       	ldi	r16, 0x5A	; 90
    182e:	30 91 61 00 	lds	r19, 0x0061
    1832:	34 fd       	sbrc	r19, 4
    1834:	11 c0       	rjmp	.+34     	; 0x1858 <sendCntAndReti>
    1836:	00 93 61 00 	sts	0x0061, r16
    183a:	ce ef       	ldi	r28, 0xFE	; 254
    183c:	d0 e0       	ldi	r29, 0x00	; 0
    183e:	10 c0       	rjmp	.+32     	; 0x1860 <usbSendAndReti>

00001840 <bitstuff7>:
    1840:	05 27       	eor	r16, r21
    1842:	10 e0       	ldi	r17, 0x00	; 0
    1844:	00 c0       	rjmp	.+0      	; 0x1846 <bitstuff7+0x6>
    1846:	21 c0       	rjmp	.+66     	; 0x188a <didStuff7>

00001848 <bitstuffN>:
    1848:	05 27       	eor	r16, r21
    184a:	10 e0       	ldi	r17, 0x00	; 0
    184c:	c8 95       	lpm
    184e:	08 bb       	out	0x18, r16	; 24
    1850:	14 c0       	rjmp	.+40     	; 0x187a <didStuffN>

00001852 <sendNakAndReti>:
    1852:	3a e5       	ldi	r19, 0x5A	; 90
    1854:	01 c0       	rjmp	.+2      	; 0x1858 <sendCntAndReti>

00001856 <sendAckAndReti>:
    1856:	32 ed       	ldi	r19, 0xD2	; 210

00001858 <sendCntAndReti>:
    1858:	03 2e       	mov	r0, r19
    185a:	c0 e0       	ldi	r28, 0x00	; 0
    185c:	d0 e0       	ldi	r29, 0x00	; 0
    185e:	32 e0       	ldi	r19, 0x02	; 2

00001860 <usbSendAndReti>:
    1860:	17 b3       	in	r17, 0x17	; 23
    1862:	18 61       	ori	r17, 0x18	; 24
    1864:	c3 9a       	sbi	0x18, 3	; 24
    1866:	08 b3       	in	r16, 0x18	; 24
    1868:	17 bb       	out	0x17, r17	; 23
    186a:	58 e1       	ldi	r21, 0x18	; 24
    186c:	20 e8       	ldi	r18, 0x80	; 128
    186e:	4f ef       	ldi	r20, 0xFF	; 255

00001870 <bitloop>:
    1870:	20 ff       	sbrs	r18, 0
    1872:	05 27       	eor	r16, r21
    1874:	08 bb       	out	0x18, r16	; 24
    1876:	27 95       	ror	r18
    1878:	17 95       	ror	r17

0000187a <didStuffN>:
    187a:	1c 3f       	cpi	r17, 0xFC	; 252
    187c:	28 f7       	brcc	.-54     	; 0x1848 <bitstuffN>
    187e:	00 00       	nop
    1880:	45 52       	subi	r20, 0x25	; 37
    1882:	b0 f7       	brcc	.-20     	; 0x1870 <bitloop>
    1884:	20 ff       	sbrs	r18, 0
    1886:	05 27       	eor	r16, r21
    1888:	27 95       	ror	r18

0000188a <didStuff7>:
    188a:	08 bb       	out	0x18, r16	; 24
    188c:	17 95       	ror	r17
    188e:	1c 3f       	cpi	r17, 0xFC	; 252
    1890:	b8 f6       	brcc	.-82     	; 0x1840 <bitstuff7>
    1892:	29 91       	ld	r18, Y+
    1894:	3a 95       	dec	r19
    1896:	61 f7       	brne	.-40     	; 0x1870 <bitloop>
    1898:	07 7e       	andi	r16, 0xE7	; 231
    189a:	10 91 0f 01 	lds	r17, 0x010F
    189e:	11 0f       	add	r17, r17
    18a0:	08 bb       	out	0x18, r16	; 24
    18a2:	c2 50       	subi	r28, 0x02	; 2
    18a4:	d0 40       	sbci	r29, 0x00	; 0
    18a6:	11 f0       	breq	.+4      	; 0x18ac <skipAddrAssign>
    18a8:	10 93 09 01 	sts	0x0109, r17

000018ac <skipAddrAssign>:
    18ac:	10 e2       	ldi	r17, 0x20	; 32
    18ae:	1a bf       	out	0x3a, r17	; 58
    18b0:	08 60       	ori	r16, 0x08	; 8
    18b2:	17 b3       	in	r17, 0x17	; 23
    18b4:	17 7e       	andi	r17, 0xE7	; 231
    18b6:	40 2f       	mov	r20, r16
    18b8:	47 7e       	andi	r20, 0xE7	; 231
    18ba:	54 e0       	ldi	r21, 0x04	; 4

000018bc <se0Delay>:
    18bc:	5a 95       	dec	r21
    18be:	f1 f7       	brne	.-4      	; 0x18bc <se0Delay>
    18c0:	08 bb       	out	0x18, r16	; 24
    18c2:	17 bb       	out	0x17, r17	; 23
    18c4:	48 bb       	out	0x18, r20	; 24
    18c6:	8a cf       	rjmp	.-236    	; 0x17dc <doReturn>

000018c8 <write_word>:
    18c8:	20 91 f9 00 	lds	r18, 0x00F9
    18cc:	30 91 fa 00 	lds	r19, 0x00FA
    18d0:	2d 3f       	cpi	r18, 0xFD	; 253
    18d2:	34 41       	sbci	r19, 0x14	; 20
    18d4:	b8 f4       	brcc	.+46     	; 0x1904 <write_word+0x3c>
    18d6:	21 e0       	ldi	r18, 0x01	; 1
    18d8:	20 93 f6 00 	sts	0x00F6, r18
    18dc:	f8 94       	cli
    18de:	e0 91 f9 00 	lds	r30, 0x00F9
    18e2:	f0 91 fa 00 	lds	r31, 0x00FA
    18e6:	0c 01       	movw	r0, r24
    18e8:	20 93 57 00 	sts	0x0057, r18
    18ec:	e8 95       	spm
    18ee:	11 24       	eor	r1, r1
    18f0:	78 94       	sei
    18f2:	80 91 f9 00 	lds	r24, 0x00F9
    18f6:	90 91 fa 00 	lds	r25, 0x00FA
    18fa:	02 96       	adiw	r24, 0x02	; 2
    18fc:	90 93 fa 00 	sts	0x00FA, r25
    1900:	80 93 f9 00 	sts	0x00F9, r24
    1904:	08 95       	ret

00001906 <finalize_flash_if_dirty>:
    1906:	80 91 f6 00 	lds	r24, 0x00F6
    190a:	88 23       	and	r24, r24
    190c:	09 f4       	brne	.+2      	; 0x1910 <finalize_flash_if_dirty+0xa>
    190e:	3d c0       	rjmp	.+122    	; 0x198a <finalize_flash_if_dirty+0x84>
    1910:	80 91 f9 00 	lds	r24, 0x00F9
    1914:	90 91 fa 00 	lds	r25, 0x00FA
    1918:	81 30       	cpi	r24, 0x01	; 1
    191a:	95 41       	sbci	r25, 0x15	; 21
    191c:	08 f0       	brcs	.+2      	; 0x1920 <finalize_flash_if_dirty+0x1a>
    191e:	35 c0       	rjmp	.+106    	; 0x198a <finalize_flash_if_dirty+0x84>
    1920:	f8 94       	cli
    1922:	80 91 f9 00 	lds	r24, 0x00F9
    1926:	90 91 fa 00 	lds	r25, 0x00FA
    192a:	82 3c       	cpi	r24, 0xC2	; 194
    192c:	94 41       	sbci	r25, 0x14	; 20
    192e:	18 f1       	brcs	.+70     	; 0x1976 <finalize_flash_if_dirty+0x70>
    1930:	80 91 66 00 	lds	r24, 0x0066
    1934:	90 91 67 00 	lds	r25, 0x0067
    1938:	8f 57       	subi	r24, 0x7F	; 127
    193a:	9a 40       	sbci	r25, 0x0A	; 10
    193c:	9f 70       	andi	r25, 0x0F	; 15
    193e:	90 6c       	ori	r25, 0xC0	; 192
    1940:	ee ef       	ldi	r30, 0xFE	; 254
    1942:	f4 e1       	ldi	r31, 0x14	; 20
    1944:	21 e0       	ldi	r18, 0x01	; 1
    1946:	0c 01       	movw	r0, r24
    1948:	20 93 57 00 	sts	0x0057, r18
    194c:	e8 95       	spm
    194e:	11 24       	eor	r1, r1
    1950:	80 91 6e 00 	lds	r24, 0x006E
    1954:	90 91 6f 00 	lds	r25, 0x006F
    1958:	8c 57       	subi	r24, 0x7C	; 124
    195a:	9a 40       	sbci	r25, 0x0A	; 10
    195c:	9f 70       	andi	r25, 0x0F	; 15
    195e:	90 6c       	ori	r25, 0xC0	; 192
    1960:	ec ef       	ldi	r30, 0xFC	; 252
    1962:	f4 e1       	ldi	r31, 0x14	; 20
    1964:	0c 01       	movw	r0, r24
    1966:	20 93 57 00 	sts	0x0057, r18
    196a:	e8 95       	spm
    196c:	11 24       	eor	r1, r1
    196e:	78 94       	sei
    1970:	81 e0       	ldi	r24, 0x01	; 1
    1972:	80 93 64 00 	sts	0x0064, r24
    1976:	e0 91 f9 00 	lds	r30, 0x00F9
    197a:	f0 91 fa 00 	lds	r31, 0x00FA
    197e:	32 97       	sbiw	r30, 0x02	; 2
    1980:	85 e0       	ldi	r24, 0x05	; 5
    1982:	80 93 57 00 	sts	0x0057, r24
    1986:	e8 95       	spm
    1988:	78 94       	sei
    198a:	10 92 f6 00 	sts	0x00F6, r1
    198e:	08 95       	ret

00001990 <usbPoll>:
    1990:	ff 92       	push	r15
    1992:	0f 93       	push	r16
    1994:	1f 93       	push	r17
    1996:	cf 93       	push	r28
    1998:	df 93       	push	r29
    199a:	80 91 0e 01 	lds	r24, 0x010E
    199e:	83 50       	subi	r24, 0x03	; 3
    19a0:	87 fd       	sbrc	r24, 7
    19a2:	5a c1       	rjmp	.+692    	; 0x1c58 <usbPoll+0x2c8>
    19a4:	90 91 0b 01 	lds	r25, 0x010B
    19a8:	ac e0       	ldi	r26, 0x0C	; 12
    19aa:	b0 e0       	ldi	r27, 0x00	; 0
    19ac:	a9 1b       	sub	r26, r25
    19ae:	b1 09       	sbc	r27, r1
    19b0:	ae 5e       	subi	r26, 0xEE	; 238
    19b2:	be 4f       	sbci	r27, 0xFE	; 254
    19b4:	31 e0       	ldi	r19, 0x01	; 1
    19b6:	30 93 62 00 	sts	0x0062, r19
    19ba:	90 91 0a 01 	lds	r25, 0x010A
    19be:	9d 32       	cpi	r25, 0x2D	; 45
    19c0:	09 f0       	breq	.+2      	; 0x19c4 <usbPoll+0x34>
    19c2:	0a c1       	rjmp	.+532    	; 0x1bd8 <usbPoll+0x248>
    19c4:	88 30       	cpi	r24, 0x08	; 8
    19c6:	09 f0       	breq	.+2      	; 0x19ca <usbPoll+0x3a>
    19c8:	45 c1       	rjmp	.+650    	; 0x1c54 <usbPoll+0x2c4>
    19ca:	83 ec       	ldi	r24, 0xC3	; 195
    19cc:	80 93 fe 00 	sts	0x00FE, r24
    19d0:	8a e5       	ldi	r24, 0x5A	; 90
    19d2:	80 93 61 00 	sts	0x0061, r24
    19d6:	10 92 fd 00 	sts	0x00FD, r1
    19da:	8c 91       	ld	r24, X
    19dc:	80 76       	andi	r24, 0x60	; 96
    19de:	09 f4       	brne	.+2      	; 0x19e2 <usbPoll+0x52>
    19e0:	7d c0       	rjmp	.+250    	; 0x1adc <usbPoll+0x14c>
    19e2:	10 92 f3 00 	sts	0x00F3, r1
    19e6:	10 92 f5 00 	sts	0x00F5, r1
    19ea:	10 92 f4 00 	sts	0x00F4, r1
    19ee:	11 96       	adiw	r26, 0x01	; 1
    19f0:	2c 91       	ld	r18, X
    19f2:	11 97       	sbiw	r26, 0x01	; 1
    19f4:	21 30       	cpi	r18, 0x01	; 1
    19f6:	09 f4       	brne	.+2      	; 0x19fa <usbPoll+0x6a>
    19f8:	69 c0       	rjmp	.+210    	; 0x1acc <usbPoll+0x13c>
    19fa:	26 30       	cpi	r18, 0x06	; 6
    19fc:	21 f4       	brne	.+8      	; 0x1a06 <usbPoll+0x76>
    19fe:	81 e0       	ldi	r24, 0x01	; 1
    1a00:	80 93 fc 00 	sts	0x00FC, r24
    1a04:	67 c0       	rjmp	.+206    	; 0x1ad4 <usbPoll+0x144>
    1a06:	27 30       	cpi	r18, 0x07	; 7
    1a08:	09 f0       	breq	.+2      	; 0x1a0c <usbPoll+0x7c>
    1a0a:	40 c0       	rjmp	.+128    	; 0x1a8c <usbPoll+0xfc>
    1a0c:	30 93 fc 00 	sts	0x00FC, r19
    1a10:	89 ee       	ldi	r24, 0xE9	; 233
    1a12:	90 e0       	ldi	r25, 0x00	; 0
    1a14:	90 93 0d 01 	sts	0x010D, r25
    1a18:	80 93 0c 01 	sts	0x010C, r24
    1a1c:	13 96       	adiw	r26, 0x03	; 3
    1a1e:	9c 91       	ld	r25, X
    1a20:	13 97       	sbiw	r26, 0x03	; 3
    1a22:	90 93 eb 00 	sts	0x00EB, r25
    1a26:	10 92 ec 00 	sts	0x00EC, r1
    1a2a:	12 96       	adiw	r26, 0x02	; 2
    1a2c:	8c 91       	ld	r24, X
    1a2e:	12 97       	sbiw	r26, 0x02	; 2
    1a30:	80 33       	cpi	r24, 0x30	; 48
    1a32:	79 f4       	brne	.+30     	; 0x1a52 <usbPoll+0xc2>
    1a34:	91 11       	cpse	r25, r1
    1a36:	4c c0       	rjmp	.+152    	; 0x1ad0 <usbPoll+0x140>
    1a38:	14 96       	adiw	r26, 0x04	; 4
    1a3a:	ec 91       	ld	r30, X
    1a3c:	14 97       	sbiw	r26, 0x04	; 4
    1a3e:	f0 e0       	ldi	r31, 0x00	; 0
    1a40:	ee 0f       	add	r30, r30
    1a42:	ff 1f       	adc	r31, r31
    1a44:	81 e2       	ldi	r24, 0x21	; 33
    1a46:	80 93 57 00 	sts	0x0057, r24
    1a4a:	e4 91       	lpm	r30, Z
    1a4c:	e0 93 ec 00 	sts	0x00EC, r30
    1a50:	3f c0       	rjmp	.+126    	; 0x1ad0 <usbPoll+0x140>
    1a52:	8c 3a       	cpi	r24, 0xAC	; 172
    1a54:	81 f4       	brne	.+32     	; 0x1a76 <usbPoll+0xe6>
    1a56:	90 38       	cpi	r25, 0x80	; 128
    1a58:	d9 f5       	brne	.+118    	; 0x1ad0 <usbPoll+0x140>
    1a5a:	14 96       	adiw	r26, 0x04	; 4
    1a5c:	8c 91       	ld	r24, X
    1a5e:	14 97       	sbiw	r26, 0x04	; 4
    1a60:	81 11       	cpse	r24, r1
    1a62:	36 c0       	rjmp	.+108    	; 0x1ad0 <usbPoll+0x140>
    1a64:	15 96       	adiw	r26, 0x05	; 5
    1a66:	8c 91       	ld	r24, X
    1a68:	15 97       	sbiw	r26, 0x05	; 5
    1a6a:	81 11       	cpse	r24, r1
    1a6c:	31 c0       	rjmp	.+98     	; 0x1ad0 <usbPoll+0x140>
    1a6e:	81 e0       	ldi	r24, 0x01	; 1
    1a70:	80 93 e8 00 	sts	0x00E8, r24
    1a74:	2d c0       	rjmp	.+90     	; 0x1ad0 <usbPoll+0x140>
    1a76:	8c 34       	cpi	r24, 0x4C	; 76
    1a78:	59 f5       	brne	.+86     	; 0x1ad0 <usbPoll+0x140>
    1a7a:	15 96       	adiw	r26, 0x05	; 5
    1a7c:	8c 91       	ld	r24, X
    1a7e:	15 97       	sbiw	r26, 0x05	; 5
    1a80:	81 11       	cpse	r24, r1
    1a82:	26 c0       	rjmp	.+76     	; 0x1ad0 <usbPoll+0x140>
    1a84:	81 e0       	ldi	r24, 0x01	; 1
    1a86:	80 93 e7 00 	sts	0x00E7, r24
    1a8a:	22 c0       	rjmp	.+68     	; 0x1ad0 <usbPoll+0x140>
    1a8c:	28 30       	cpi	r18, 0x08	; 8
    1a8e:	09 f4       	brne	.+2      	; 0x1a92 <usbPoll+0x102>
    1a90:	b6 cf       	rjmp	.-148    	; 0x19fe <usbPoll+0x6e>
    1a92:	14 96       	adiw	r26, 0x04	; 4
    1a94:	8d 91       	ld	r24, X+
    1a96:	9c 91       	ld	r25, X
    1a98:	15 97       	sbiw	r26, 0x05	; 5
    1a9a:	90 93 fa 00 	sts	0x00FA, r25
    1a9e:	80 93 f9 00 	sts	0x00F9, r24
    1aa2:	16 96       	adiw	r26, 0x06	; 6
    1aa4:	8c 91       	ld	r24, X
    1aa6:	16 97       	sbiw	r26, 0x06	; 6
    1aa8:	80 93 f1 00 	sts	0x00F1, r24
    1aac:	87 ef       	ldi	r24, 0xF7	; 247
    1aae:	82 0f       	add	r24, r18
    1ab0:	84 30       	cpi	r24, 0x04	; 4
    1ab2:	80 f4       	brcc	.+32     	; 0x1ad4 <usbPoll+0x144>
    1ab4:	8f e7       	ldi	r24, 0x7F	; 127
    1ab6:	88 bd       	out	0x28, r24	; 40
    1ab8:	30 93 fb 00 	sts	0x00FB, r19
    1abc:	20 93 f2 00 	sts	0x00F2, r18
    1ac0:	2a 30       	cpi	r18, 0x0A	; 10
    1ac2:	51 f0       	breq	.+20     	; 0x1ad8 <usbPoll+0x148>
    1ac4:	81 e0       	ldi	r24, 0x01	; 1
    1ac6:	80 93 fc 00 	sts	0x00FC, r24
    1aca:	06 c0       	rjmp	.+12     	; 0x1ad8 <usbPoll+0x148>
    1acc:	21 e0       	ldi	r18, 0x01	; 1
    1ace:	77 c0       	rjmp	.+238    	; 0x1bbe <usbPoll+0x22e>
    1ad0:	24 e0       	ldi	r18, 0x04	; 4
    1ad2:	75 c0       	rjmp	.+234    	; 0x1bbe <usbPoll+0x22e>
    1ad4:	20 e0       	ldi	r18, 0x00	; 0
    1ad6:	73 c0       	rjmp	.+230    	; 0x1bbe <usbPoll+0x22e>
    1ad8:	2f ef       	ldi	r18, 0xFF	; 255
    1ada:	68 c0       	rjmp	.+208    	; 0x1bac <usbPoll+0x21c>
    1adc:	12 96       	adiw	r26, 0x02	; 2
    1ade:	9c 91       	ld	r25, X
    1ae0:	12 97       	sbiw	r26, 0x02	; 2
    1ae2:	10 92 07 01 	sts	0x0107, r1
    1ae6:	11 96       	adiw	r26, 0x01	; 1
    1ae8:	8c 91       	ld	r24, X
    1aea:	11 97       	sbiw	r26, 0x01	; 1
    1aec:	81 11       	cpse	r24, r1
    1aee:	06 c0       	rjmp	.+12     	; 0x1afc <usbPoll+0x16c>
    1af0:	10 92 08 01 	sts	0x0108, r1
    1af4:	87 e0       	ldi	r24, 0x07	; 7
    1af6:	91 e0       	ldi	r25, 0x01	; 1
    1af8:	22 e0       	ldi	r18, 0x02	; 2
    1afa:	52 c0       	rjmp	.+164    	; 0x1ba0 <usbPoll+0x210>
    1afc:	85 30       	cpi	r24, 0x05	; 5
    1afe:	19 f4       	brne	.+6      	; 0x1b06 <usbPoll+0x176>
    1b00:	90 93 0f 01 	sts	0x010F, r25
    1b04:	3f c0       	rjmp	.+126    	; 0x1b84 <usbPoll+0x1f4>
    1b06:	86 30       	cpi	r24, 0x06	; 6
    1b08:	b9 f5       	brne	.+110    	; 0x1b78 <usbPoll+0x1e8>
    1b0a:	13 96       	adiw	r26, 0x03	; 3
    1b0c:	8c 91       	ld	r24, X
    1b0e:	13 97       	sbiw	r26, 0x03	; 3
    1b10:	81 30       	cpi	r24, 0x01	; 1
    1b12:	19 f4       	brne	.+6      	; 0x1b1a <usbPoll+0x18a>
    1b14:	80 e3       	ldi	r24, 0x30	; 48
    1b16:	95 e1       	ldi	r25, 0x15	; 21
    1b18:	04 c0       	rjmp	.+8      	; 0x1b22 <usbPoll+0x192>
    1b1a:	82 30       	cpi	r24, 0x02	; 2
    1b1c:	41 f4       	brne	.+16     	; 0x1b2e <usbPoll+0x19e>
    1b1e:	8e e1       	ldi	r24, 0x1E	; 30
    1b20:	95 e1       	ldi	r25, 0x15	; 21
    1b22:	90 93 0d 01 	sts	0x010D, r25
    1b26:	80 93 0c 01 	sts	0x010C, r24
    1b2a:	22 e1       	ldi	r18, 0x12	; 18
    1b2c:	21 c0       	rjmp	.+66     	; 0x1b70 <usbPoll+0x1e0>
    1b2e:	83 30       	cpi	r24, 0x03	; 3
    1b30:	f1 f4       	brne	.+60     	; 0x1b6e <usbPoll+0x1de>
    1b32:	91 11       	cpse	r25, r1
    1b34:	08 c0       	rjmp	.+16     	; 0x1b46 <usbPoll+0x1b6>
    1b36:	8a e6       	ldi	r24, 0x6A	; 106
    1b38:	95 e1       	ldi	r25, 0x15	; 21
    1b3a:	90 93 0d 01 	sts	0x010D, r25
    1b3e:	80 93 0c 01 	sts	0x010C, r24
    1b42:	24 e0       	ldi	r18, 0x04	; 4
    1b44:	15 c0       	rjmp	.+42     	; 0x1b70 <usbPoll+0x1e0>
    1b46:	91 30       	cpi	r25, 0x01	; 1
    1b48:	41 f4       	brne	.+16     	; 0x1b5a <usbPoll+0x1ca>
    1b4a:	8a e4       	ldi	r24, 0x4A	; 74
    1b4c:	95 e1       	ldi	r25, 0x15	; 21
    1b4e:	90 93 0d 01 	sts	0x010D, r25
    1b52:	80 93 0c 01 	sts	0x010C, r24
    1b56:	20 e2       	ldi	r18, 0x20	; 32
    1b58:	0b c0       	rjmp	.+22     	; 0x1b70 <usbPoll+0x1e0>
    1b5a:	92 30       	cpi	r25, 0x02	; 2
    1b5c:	41 f4       	brne	.+16     	; 0x1b6e <usbPoll+0x1de>
    1b5e:	82 e4       	ldi	r24, 0x42	; 66
    1b60:	95 e1       	ldi	r25, 0x15	; 21
    1b62:	90 93 0d 01 	sts	0x010D, r25
    1b66:	80 93 0c 01 	sts	0x010C, r24
    1b6a:	28 e0       	ldi	r18, 0x08	; 8
    1b6c:	01 c0       	rjmp	.+2      	; 0x1b70 <usbPoll+0x1e0>
    1b6e:	20 e0       	ldi	r18, 0x00	; 0
    1b70:	80 e4       	ldi	r24, 0x40	; 64
    1b72:	80 93 fd 00 	sts	0x00FD, r24
    1b76:	18 c0       	rjmp	.+48     	; 0x1ba8 <usbPoll+0x218>
    1b78:	88 30       	cpi	r24, 0x08	; 8
    1b7a:	79 f0       	breq	.+30     	; 0x1b9a <usbPoll+0x20a>
    1b7c:	89 30       	cpi	r24, 0x09	; 9
    1b7e:	31 f4       	brne	.+12     	; 0x1b8c <usbPoll+0x1fc>
    1b80:	90 93 11 01 	sts	0x0111, r25
    1b84:	87 e0       	ldi	r24, 0x07	; 7
    1b86:	91 e0       	ldi	r25, 0x01	; 1
    1b88:	20 e0       	ldi	r18, 0x00	; 0
    1b8a:	0a c0       	rjmp	.+20     	; 0x1ba0 <usbPoll+0x210>
    1b8c:	21 e0       	ldi	r18, 0x01	; 1
    1b8e:	8a 30       	cpi	r24, 0x0A	; 10
    1b90:	09 f0       	breq	.+2      	; 0x1b94 <usbPoll+0x204>
    1b92:	20 e0       	ldi	r18, 0x00	; 0
    1b94:	87 e0       	ldi	r24, 0x07	; 7
    1b96:	91 e0       	ldi	r25, 0x01	; 1
    1b98:	03 c0       	rjmp	.+6      	; 0x1ba0 <usbPoll+0x210>
    1b9a:	81 e1       	ldi	r24, 0x11	; 17
    1b9c:	91 e0       	ldi	r25, 0x01	; 1
    1b9e:	21 e0       	ldi	r18, 0x01	; 1
    1ba0:	90 93 0d 01 	sts	0x010D, r25
    1ba4:	80 93 0c 01 	sts	0x010C, r24
    1ba8:	2f 3f       	cpi	r18, 0xFF	; 255
    1baa:	49 f4       	brne	.+18     	; 0x1bbe <usbPoll+0x22e>
    1bac:	8c 91       	ld	r24, X
    1bae:	87 ff       	sbrs	r24, 7
    1bb0:	02 c0       	rjmp	.+4      	; 0x1bb6 <usbPoll+0x226>
    1bb2:	16 96       	adiw	r26, 0x06	; 6
    1bb4:	2c 91       	ld	r18, X
    1bb6:	80 e8       	ldi	r24, 0x80	; 128
    1bb8:	80 93 fd 00 	sts	0x00FD, r24
    1bbc:	0a c0       	rjmp	.+20     	; 0x1bd2 <usbPoll+0x242>
    1bbe:	17 96       	adiw	r26, 0x07	; 7
    1bc0:	8c 91       	ld	r24, X
    1bc2:	17 97       	sbiw	r26, 0x07	; 7
    1bc4:	81 11       	cpse	r24, r1
    1bc6:	05 c0       	rjmp	.+10     	; 0x1bd2 <usbPoll+0x242>
    1bc8:	16 96       	adiw	r26, 0x06	; 6
    1bca:	8c 91       	ld	r24, X
    1bcc:	82 17       	cp	r24, r18
    1bce:	08 f4       	brcc	.+2      	; 0x1bd2 <usbPoll+0x242>
    1bd0:	28 2f       	mov	r18, r24
    1bd2:	20 93 60 00 	sts	0x0060, r18
    1bd6:	3e c0       	rjmp	.+124    	; 0x1c54 <usbPoll+0x2c4>
    1bd8:	90 91 fd 00 	lds	r25, 0x00FD
    1bdc:	97 ff       	sbrs	r25, 7
    1bde:	3a c0       	rjmp	.+116    	; 0x1c54 <usbPoll+0x2c4>
    1be0:	90 91 f1 00 	lds	r25, 0x00F1
    1be4:	18 2f       	mov	r17, r24
    1be6:	98 17       	cp	r25, r24
    1be8:	08 f4       	brcc	.+2      	; 0x1bec <usbPoll+0x25c>
    1bea:	19 2f       	mov	r17, r25
    1bec:	09 2f       	mov	r16, r25
    1bee:	01 1b       	sub	r16, r17
    1bf0:	00 93 f1 00 	sts	0x00F1, r16
    1bf4:	10 92 fc 00 	sts	0x00FC, r1
    1bf8:	80 91 f2 00 	lds	r24, 0x00F2
    1bfc:	8a 30       	cpi	r24, 0x0A	; 10
    1bfe:	29 f0       	breq	.+10     	; 0x1c0a <usbPoll+0x27a>
    1c00:	01 11       	cpse	r16, r1
    1c02:	28 c0       	rjmp	.+80     	; 0x1c54 <usbPoll+0x2c4>
    1c04:	10 92 60 00 	sts	0x0060, r1
    1c08:	25 c0       	rjmp	.+74     	; 0x1c54 <usbPoll+0x2c4>
    1c0a:	fa 2e       	mov	r15, r26
    1c0c:	ca 2f       	mov	r28, r26
    1c0e:	db 2f       	mov	r29, r27
    1c10:	8c 2f       	mov	r24, r28
    1c12:	8f 19       	sub	r24, r15
    1c14:	81 17       	cp	r24, r17
    1c16:	a0 f7       	brcc	.-24     	; 0x1c00 <usbPoll+0x270>
    1c18:	80 91 f9 00 	lds	r24, 0x00F9
    1c1c:	90 91 fa 00 	lds	r25, 0x00FA
    1c20:	80 34       	cpi	r24, 0x40	; 64
    1c22:	91 05       	cpc	r25, r1
    1c24:	90 f4       	brcc	.+36     	; 0x1c4a <usbPoll+0x2ba>
    1c26:	21 e0       	ldi	r18, 0x01	; 1
    1c28:	20 93 65 00 	sts	0x0065, r18
    1c2c:	fc 01       	movw	r30, r24
    1c2e:	ee 0f       	add	r30, r30
    1c30:	ff 1f       	adc	r31, r31
    1c32:	ea 59       	subi	r30, 0x9A	; 154
    1c34:	ff 4f       	sbci	r31, 0xFF	; 255
    1c36:	28 81       	ld	r18, Y
    1c38:	39 81       	ldd	r19, Y+1	; 0x01
    1c3a:	31 83       	std	Z+1, r19	; 0x01
    1c3c:	20 83       	st	Z, r18
    1c3e:	02 96       	adiw	r24, 0x02	; 2
    1c40:	90 93 fa 00 	sts	0x00FA, r25
    1c44:	80 93 f9 00 	sts	0x00F9, r24
    1c48:	03 c0       	rjmp	.+6      	; 0x1c50 <usbPoll+0x2c0>
    1c4a:	88 81       	ld	r24, Y
    1c4c:	99 81       	ldd	r25, Y+1	; 0x01
    1c4e:	3c de       	rcall	.-904    	; 0x18c8 <write_word>
    1c50:	22 96       	adiw	r28, 0x02	; 2
    1c52:	de cf       	rjmp	.-68     	; 0x1c10 <usbPoll+0x280>
    1c54:	10 92 0e 01 	sts	0x010E, r1
    1c58:	80 91 61 00 	lds	r24, 0x0061
    1c5c:	84 ff       	sbrs	r24, 4
    1c5e:	7b c0       	rjmp	.+246    	; 0x1d56 <usbPoll+0x3c6>
    1c60:	80 91 60 00 	lds	r24, 0x0060
    1c64:	8f 3f       	cpi	r24, 0xFF	; 255
    1c66:	09 f4       	brne	.+2      	; 0x1c6a <usbPoll+0x2da>
    1c68:	76 c0       	rjmp	.+236    	; 0x1d56 <usbPoll+0x3c6>
    1c6a:	18 2f       	mov	r17, r24
    1c6c:	89 30       	cpi	r24, 0x09	; 9
    1c6e:	08 f0       	brcs	.+2      	; 0x1c72 <usbPoll+0x2e2>
    1c70:	18 e0       	ldi	r17, 0x08	; 8
    1c72:	81 1b       	sub	r24, r17
    1c74:	80 93 60 00 	sts	0x0060, r24
    1c78:	80 91 fe 00 	lds	r24, 0x00FE
    1c7c:	98 e8       	ldi	r25, 0x88	; 136
    1c7e:	89 27       	eor	r24, r25
    1c80:	80 93 fe 00 	sts	0x00FE, r24
    1c84:	11 23       	and	r17, r17
    1c86:	09 f4       	brne	.+2      	; 0x1c8a <usbPoll+0x2fa>
    1c88:	5a c0       	rjmp	.+180    	; 0x1d3e <usbPoll+0x3ae>
    1c8a:	80 91 fd 00 	lds	r24, 0x00FD
    1c8e:	87 ff       	sbrs	r24, 7
    1c90:	38 c0       	rjmp	.+112    	; 0x1d02 <usbPoll+0x372>
    1c92:	80 91 f1 00 	lds	r24, 0x00F1
    1c96:	81 17       	cp	r24, r17
    1c98:	08 f4       	brcc	.+2      	; 0x1c9c <usbPoll+0x30c>
    1c9a:	18 2f       	mov	r17, r24
    1c9c:	81 1b       	sub	r24, r17
    1c9e:	80 93 f1 00 	sts	0x00F1, r24
    1ca2:	30 91 f2 00 	lds	r19, 0x00F2
    1ca6:	e0 91 f9 00 	lds	r30, 0x00F9
    1caa:	f0 91 fa 00 	lds	r31, 0x00FA
    1cae:	20 e0       	ldi	r18, 0x00	; 0
    1cb0:	af ef       	ldi	r26, 0xFF	; 255
    1cb2:	b0 e0       	ldi	r27, 0x00	; 0
    1cb4:	21 17       	cp	r18, r17
    1cb6:	00 f5       	brcc	.+64     	; 0x1cf8 <usbPoll+0x368>
    1cb8:	3b 30       	cpi	r19, 0x0B	; 11
    1cba:	09 f4       	brne	.+2      	; 0x1cbe <usbPoll+0x32e>
    1cbc:	ff cf       	rjmp	.-2      	; 0x1cbc <usbPoll+0x32c>
    1cbe:	39 30       	cpi	r19, 0x09	; 9
    1cc0:	d9 f7       	brne	.-10     	; 0x1cb8 <usbPoll+0x328>
    1cc2:	e0 34       	cpi	r30, 0x40	; 64
    1cc4:	f1 05       	cpc	r31, r1
    1cc6:	60 f4       	brcc	.+24     	; 0x1ce0 <usbPoll+0x350>
    1cc8:	ef 01       	movw	r28, r30
    1cca:	cc 0f       	add	r28, r28
    1ccc:	dd 1f       	adc	r29, r29
    1cce:	ca 59       	subi	r28, 0x9A	; 154
    1cd0:	df 4f       	sbci	r29, 0xFF	; 255
    1cd2:	88 81       	ld	r24, Y
    1cd4:	99 81       	ldd	r25, Y+1	; 0x01
    1cd6:	8d 93       	st	X+, r24
    1cd8:	9d 93       	st	X+, r25
    1cda:	2e 5f       	subi	r18, 0xFE	; 254
    1cdc:	32 96       	adiw	r30, 0x02	; 2
    1cde:	ea cf       	rjmp	.-44     	; 0x1cb4 <usbPoll+0x324>
    1ce0:	ec 3f       	cpi	r30, 0xFC	; 252
    1ce2:	84 e1       	ldi	r24, 0x14	; 20
    1ce4:	f8 07       	cpc	r31, r24
    1ce6:	10 f0       	brcs	.+4      	; 0x1cec <usbPoll+0x35c>
    1ce8:	8f ef       	ldi	r24, 0xFF	; 255
    1cea:	01 c0       	rjmp	.+2      	; 0x1cee <usbPoll+0x35e>
    1cec:	84 91       	lpm	r24, Z
    1cee:	8c 93       	st	X, r24
    1cf0:	11 96       	adiw	r26, 0x01	; 1
    1cf2:	2f 5f       	subi	r18, 0xFF	; 255
    1cf4:	31 96       	adiw	r30, 0x01	; 1
    1cf6:	de cf       	rjmp	.-68     	; 0x1cb4 <usbPoll+0x324>
    1cf8:	f0 93 fa 00 	sts	0x00FA, r31
    1cfc:	e0 93 f9 00 	sts	0x00F9, r30
    1d00:	1e c0       	rjmp	.+60     	; 0x1d3e <usbPoll+0x3ae>
    1d02:	e0 91 0c 01 	lds	r30, 0x010C
    1d06:	f0 91 0d 01 	lds	r31, 0x010D
    1d0a:	86 ff       	sbrs	r24, 6
    1d0c:	0b c0       	rjmp	.+22     	; 0x1d24 <usbPoll+0x394>
    1d0e:	8f ef       	ldi	r24, 0xFF	; 255
    1d10:	90 e0       	ldi	r25, 0x00	; 0
    1d12:	dc 01       	movw	r26, r24
    1d14:	24 91       	lpm	r18, Z
    1d16:	2d 93       	st	X+, r18
    1d18:	31 96       	adiw	r30, 0x01	; 1
    1d1a:	21 2f       	mov	r18, r17
    1d1c:	28 0f       	add	r18, r24
    1d1e:	2a 13       	cpse	r18, r26
    1d20:	f9 cf       	rjmp	.-14     	; 0x1d14 <usbPoll+0x384>
    1d22:	09 c0       	rjmp	.+18     	; 0x1d36 <usbPoll+0x3a6>
    1d24:	8f ef       	ldi	r24, 0xFF	; 255
    1d26:	90 e0       	ldi	r25, 0x00	; 0
    1d28:	dc 01       	movw	r26, r24
    1d2a:	21 91       	ld	r18, Z+
    1d2c:	2d 93       	st	X+, r18
    1d2e:	21 2f       	mov	r18, r17
    1d30:	28 0f       	add	r18, r24
    1d32:	2a 13       	cpse	r18, r26
    1d34:	fa cf       	rjmp	.-12     	; 0x1d2a <usbPoll+0x39a>
    1d36:	f0 93 0d 01 	sts	0x010D, r31
    1d3a:	e0 93 0c 01 	sts	0x010C, r30
    1d3e:	61 2f       	mov	r22, r17
    1d40:	8f ef       	ldi	r24, 0xFF	; 255
    1d42:	90 e0       	ldi	r25, 0x00	; 0
    1d44:	50 dc       	rcall	.-1888   	; 0x15e6 <usbCrc16Append>
    1d46:	1c 5f       	subi	r17, 0xFC	; 252
    1d48:	1c 30       	cpi	r17, 0x0C	; 12
    1d4a:	19 f0       	breq	.+6      	; 0x1d52 <usbPoll+0x3c2>
    1d4c:	8f ef       	ldi	r24, 0xFF	; 255
    1d4e:	80 93 60 00 	sts	0x0060, r24
    1d52:	10 93 61 00 	sts	0x0061, r17
    1d56:	84 e1       	ldi	r24, 0x14	; 20
    1d58:	96 b3       	in	r25, 0x16	; 22
    1d5a:	98 71       	andi	r25, 0x18	; 24
    1d5c:	31 f4       	brne	.+12     	; 0x1d6a <usbPoll+0x3da>
    1d5e:	81 50       	subi	r24, 0x01	; 1
    1d60:	d9 f7       	brne	.-10     	; 0x1d58 <usbPoll+0x3c8>
    1d62:	10 92 0f 01 	sts	0x010F, r1
    1d66:	10 92 09 01 	sts	0x0109, r1
    1d6a:	c1 e0       	ldi	r28, 0x01	; 1
    1d6c:	81 11       	cpse	r24, r1
    1d6e:	c0 e0       	ldi	r28, 0x00	; 0
    1d70:	80 91 63 00 	lds	r24, 0x0063
    1d74:	8c 17       	cp	r24, r28
    1d76:	39 f0       	breq	.+14     	; 0x1d86 <usbPoll+0x3f6>
    1d78:	c1 11       	cpse	r28, r1
    1d7a:	03 c0       	rjmp	.+6      	; 0x1d82 <usbPoll+0x3f2>
    1d7c:	f8 94       	cli
    1d7e:	f9 d0       	rcall	.+498    	; 0x1f72 <calibrateOscillator>
    1d80:	78 94       	sei
    1d82:	c0 93 63 00 	sts	0x0063, r28
    1d86:	df 91       	pop	r29
    1d88:	cf 91       	pop	r28
    1d8a:	1f 91       	pop	r17
    1d8c:	0f 91       	pop	r16
    1d8e:	ff 90       	pop	r15
    1d90:	08 95       	ret

00001d92 <main>:
    1d92:	c1 b7       	in	r28, 0x31	; 49
    1d94:	b9 9a       	sbi	0x17, 1	; 23
    1d96:	83 e2       	ldi	r24, 0x23	; 35
    1d98:	8a bd       	out	0x2a, r24	; 42
    1d9a:	81 e0       	ldi	r24, 0x01	; 1
    1d9c:	83 bf       	out	0x33, r24	; 51
    1d9e:	ac 9a       	sbi	0x15, 4	; 21
    1da0:	8b b7       	in	r24, 0x3b	; 59
    1da2:	80 62       	ori	r24, 0x20	; 32
    1da4:	8b bf       	out	0x3b, r24	; 59
    1da6:	bb 9a       	sbi	0x17, 3	; 23
    1da8:	2f e1       	ldi	r18, 0x1F	; 31
    1daa:	32 e1       	ldi	r19, 0x12	; 18
    1dac:	8a e0       	ldi	r24, 0x0A	; 10
    1dae:	21 50       	subi	r18, 0x01	; 1
    1db0:	30 40       	sbci	r19, 0x00	; 0
    1db2:	80 40       	sbci	r24, 0x00	; 0
    1db4:	e1 f7       	brne	.-8      	; 0x1dae <main+0x1c>
    1db6:	00 c0       	rjmp	.+0      	; 0x1db8 <main+0x26>
    1db8:	00 00       	nop
    1dba:	bb 98       	cbi	0x17, 3	; 23
    1dbc:	78 94       	sei
    1dbe:	e8 dd       	rcall	.-1072   	; 0x1990 <usbPoll>
    1dc0:	80 91 e8 00 	lds	r24, 0x00E8
    1dc4:	88 23       	and	r24, r24
    1dc6:	21 f1       	breq	.+72     	; 0x1e10 <main+0x7e>
    1dc8:	82 e0       	ldi	r24, 0x02	; 2
    1dca:	90 e0       	ldi	r25, 0x00	; 0
    1dcc:	90 93 f8 00 	sts	0x00F8, r25
    1dd0:	80 93 f7 00 	sts	0x00F7, r24
    1dd4:	13 c0       	rjmp	.+38     	; 0x1dfc <main+0x6a>
    1dd6:	cf 01       	movw	r24, r30
    1dd8:	8f 73       	andi	r24, 0x3F	; 63
    1dda:	99 27       	eor	r25, r25
    1ddc:	89 2b       	or	r24, r25
    1dde:	21 f4       	brne	.+8      	; 0x1de8 <main+0x56>
    1de0:	83 e0       	ldi	r24, 0x03	; 3
    1de2:	80 93 57 00 	sts	0x0057, r24
    1de6:	e8 95       	spm
    1de8:	d3 dd       	rcall	.-1114   	; 0x1990 <usbPoll>
    1dea:	80 91 f7 00 	lds	r24, 0x00F7
    1dee:	90 91 f8 00 	lds	r25, 0x00F8
    1df2:	02 96       	adiw	r24, 0x02	; 2
    1df4:	90 93 f8 00 	sts	0x00F8, r25
    1df8:	80 93 f7 00 	sts	0x00F7, r24
    1dfc:	e0 91 f7 00 	lds	r30, 0x00F7
    1e00:	f0 91 f8 00 	lds	r31, 0x00F8
    1e04:	e1 15       	cp	r30, r1
    1e06:	95 e1       	ldi	r25, 0x15	; 21
    1e08:	f9 07       	cpc	r31, r25
    1e0a:	28 f3       	brcs	.-54     	; 0x1dd6 <main+0x44>
    1e0c:	10 92 e8 00 	sts	0x00E8, r1
    1e10:	80 91 e7 00 	lds	r24, 0x00E7
    1e14:	88 23       	and	r24, r24
    1e16:	29 f0       	breq	.+10     	; 0x1e22 <main+0x90>
    1e18:	bb dd       	rcall	.-1162   	; 0x1990 <usbPoll>
    1e1a:	75 dd       	rcall	.-1302   	; 0x1906 <finalize_flash_if_dirty>
    1e1c:	10 92 e7 00 	sts	0x00E7, r1
    1e20:	b7 dd       	rcall	.-1170   	; 0x1990 <usbPoll>
    1e22:	80 91 62 00 	lds	r24, 0x0062
    1e26:	88 23       	and	r24, r24
    1e28:	41 f0       	breq	.+16     	; 0x1e3a <main+0xa8>
    1e2a:	80 91 fc 00 	lds	r24, 0x00FC
    1e2e:	81 11       	cpse	r24, r1
    1e30:	04 c0       	rjmp	.+8      	; 0x1e3a <main+0xa8>
    1e32:	80 91 fb 00 	lds	r24, 0x00FB
    1e36:	81 11       	cpse	r24, r1
    1e38:	c2 cf       	rjmp	.-124    	; 0x1dbe <main+0x2c>
    1e3a:	80 91 62 00 	lds	r24, 0x0062
    1e3e:	88 23       	and	r24, r24
    1e40:	71 f0       	breq	.+28     	; 0x1e5e <main+0xcc>
    1e42:	80 91 e6 00 	lds	r24, 0x00E6
    1e46:	81 11       	cpse	r24, r1
    1e48:	0a c0       	rjmp	.+20     	; 0x1e5e <main+0xcc>
    1e4a:	88 b5       	in	r24, 0x28	; 40
    1e4c:	80 5f       	subi	r24, 0xF0	; 240
    1e4e:	88 bd       	out	0x28, r24	; 40
    1e50:	88 b5       	in	r24, 0x28	; 40
    1e52:	81 11       	cpse	r24, r1
    1e54:	04 c0       	rjmp	.+8      	; 0x1e5e <main+0xcc>
    1e56:	8a b5       	in	r24, 0x2a	; 42
    1e58:	90 e1       	ldi	r25, 0x10	; 16
    1e5a:	89 27       	eor	r24, r25
    1e5c:	8a bd       	out	0x2a, r24	; 42
    1e5e:	80 91 e6 00 	lds	r24, 0x00E6
    1e62:	8f 5f       	subi	r24, 0xFF	; 255
    1e64:	80 93 e6 00 	sts	0x00E6, r24
    1e68:	8e ec       	ldi	r24, 0xCE	; 206
    1e6a:	90 e0       	ldi	r25, 0x00	; 0
    1e6c:	01 97       	sbiw	r24, 0x01	; 1
    1e6e:	f1 f7       	brne	.-4      	; 0x1e6c <main+0xda>
    1e70:	80 91 f4 00 	lds	r24, 0x00F4
    1e74:	90 91 f5 00 	lds	r25, 0x00F5
    1e78:	01 96       	adiw	r24, 0x01	; 1
    1e7a:	90 93 f5 00 	sts	0x00F5, r25
    1e7e:	80 93 f4 00 	sts	0x00F4, r24
    1e82:	20 91 f3 00 	lds	r18, 0x00F3
    1e86:	00 97       	sbiw	r24, 0x00	; 0
    1e88:	11 f4       	brne	.+4      	; 0x1e8e <main+0xfc>
    1e8a:	2f 5f       	subi	r18, 0xFF	; 255
    1e8c:	00 c0       	rjmp	.+0      	; 0x1e8e <main+0xfc>
    1e8e:	20 93 f3 00 	sts	0x00F3, r18
    1e92:	30 91 62 00 	lds	r19, 0x0062
    1e96:	31 11       	cpse	r19, r1
    1e98:	05 c0       	rjmp	.+10     	; 0x1ea4 <main+0x112>
    1e9a:	81 32       	cpi	r24, 0x21	; 33
    1e9c:	3e e4       	ldi	r19, 0x4E	; 78
    1e9e:	93 07       	cpc	r25, r19
    1ea0:	08 f0       	brcs	.+2      	; 0x1ea4 <main+0x112>
    1ea2:	52 c0       	rjmp	.+164    	; 0x1f48 <main+0x1b6>
    1ea4:	30 91 fc 00 	lds	r19, 0x00FC
    1ea8:	33 23       	and	r19, r19
    1eaa:	21 f0       	breq	.+8      	; 0x1eb4 <main+0x122>
    1eac:	81 31       	cpi	r24, 0x11	; 17
    1eae:	97 42       	sbci	r25, 0x27	; 39
    1eb0:	08 f0       	brcs	.+2      	; 0x1eb4 <main+0x122>
    1eb2:	4a c0       	rjmp	.+148    	; 0x1f48 <main+0x1b6>
    1eb4:	80 91 62 00 	lds	r24, 0x0062
    1eb8:	88 23       	and	r24, r24
    1eba:	09 f4       	brne	.+2      	; 0x1ebe <main+0x12c>
    1ebc:	80 cf       	rjmp	.-256    	; 0x1dbe <main+0x2c>
    1ebe:	80 91 fb 00 	lds	r24, 0x00FB
    1ec2:	81 11       	cpse	r24, r1
    1ec4:	7c cf       	rjmp	.-264    	; 0x1dbe <main+0x2c>
    1ec6:	23 30       	cpi	r18, 0x03	; 3
    1ec8:	08 f4       	brcc	.+2      	; 0x1ecc <main+0x13a>
    1eca:	79 cf       	rjmp	.-270    	; 0x1dbe <main+0x2c>
    1ecc:	3d c0       	rjmp	.+122    	; 0x1f48 <main+0x1b6>
    1ece:	80 91 64 00 	lds	r24, 0x0064
    1ed2:	81 11       	cpse	r24, r1
    1ed4:	41 c0       	rjmp	.+130    	; 0x1f58 <main+0x1c6>
    1ed6:	8c ef       	ldi	r24, 0xFC	; 252
    1ed8:	94 e1       	ldi	r25, 0x14	; 20
    1eda:	90 93 fa 00 	sts	0x00FA, r25
    1ede:	80 93 f9 00 	sts	0x00F9, r24
    1ee2:	81 e0       	ldi	r24, 0x01	; 1
    1ee4:	80 93 f6 00 	sts	0x00F6, r24
    1ee8:	0e dd       	rcall	.-1508   	; 0x1906 <finalize_flash_if_dirty>
    1eea:	36 c0       	rjmp	.+108    	; 0x1f58 <main+0x1c6>
    1eec:	df 01       	movw	r26, r30
    1eee:	aa 0f       	add	r26, r26
    1ef0:	bb 1f       	adc	r27, r27
    1ef2:	aa 59       	subi	r26, 0x9A	; 154
    1ef4:	bf 4f       	sbci	r27, 0xFF	; 255
    1ef6:	8d 91       	ld	r24, X+
    1ef8:	9c 91       	ld	r25, X
    1efa:	9f 01       	movw	r18, r30
    1efc:	2b 7f       	andi	r18, 0xFB	; 251
    1efe:	23 2b       	or	r18, r19
    1f00:	29 f4       	brne	.+10     	; 0x1f0c <main+0x17a>
    1f02:	fb 5e       	subi	r31, 0xEB	; 235
    1f04:	85 91       	lpm	r24, Z+
    1f06:	94 91       	lpm	r25, Z
    1f08:	80 58       	subi	r24, 0x80	; 128
    1f0a:	95 4f       	sbci	r25, 0xF5	; 245
    1f0c:	dd dc       	rcall	.-1606   	; 0x18c8 <write_word>
    1f0e:	e0 91 f9 00 	lds	r30, 0x00F9
    1f12:	f0 91 fa 00 	lds	r31, 0x00FA
    1f16:	e0 34       	cpi	r30, 0x40	; 64
    1f18:	f1 05       	cpc	r31, r1
    1f1a:	40 f3       	brcs	.-48     	; 0x1eec <main+0x15a>
    1f1c:	f4 dc       	rcall	.-1560   	; 0x1906 <finalize_flash_if_dirty>
    1f1e:	10 92 5f 02 	sts	0x025F, r1
    1f22:	17 ba       	out	0x17, r1	; 23
    1f24:	13 be       	out	0x33, r1	; 51
    1f26:	1a bc       	out	0x2a, r1	; 42
    1f28:	03 c0       	rjmp	.+6      	; 0x1f30 <main+0x19e>
    1f2a:	81 b7       	in	r24, 0x31	; 49
    1f2c:	8f 5f       	subi	r24, 0xFF	; 255
    1f2e:	81 bf       	out	0x31, r24	; 49
    1f30:	81 b7       	in	r24, 0x31	; 49
    1f32:	8c 17       	cp	r24, r28
    1f34:	d0 f3       	brcs	.-12     	; 0x1f2a <main+0x198>
    1f36:	03 c0       	rjmp	.+6      	; 0x1f3e <main+0x1ac>
    1f38:	81 b7       	in	r24, 0x31	; 49
    1f3a:	81 50       	subi	r24, 0x01	; 1
    1f3c:	81 bf       	out	0x31, r24	; 49
    1f3e:	81 b7       	in	r24, 0x31	; 49
    1f40:	c8 17       	cp	r28, r24
    1f42:	d0 f3       	brcs	.-12     	; 0x1f38 <main+0x1a6>
    1f44:	dc ca       	rjmp	.-2632   	; 0x14fe <__stack+0x129f>
    1f46:	13 c0       	rjmp	.+38     	; 0x1f6e <main+0x1dc>
    1f48:	15 ba       	out	0x15, r1	; 21
    1f4a:	1b be       	out	0x3b, r1	; 59
    1f4c:	f8 94       	cli
    1f4e:	80 91 65 00 	lds	r24, 0x0065
    1f52:	81 11       	cpse	r24, r1
    1f54:	bc cf       	rjmp	.-136    	; 0x1ece <main+0x13c>
    1f56:	e3 cf       	rjmp	.-58     	; 0x1f1e <main+0x18c>
    1f58:	e0 e0       	ldi	r30, 0x00	; 0
    1f5a:	f0 e0       	ldi	r31, 0x00	; 0
    1f5c:	83 e0       	ldi	r24, 0x03	; 3
    1f5e:	80 93 57 00 	sts	0x0057, r24
    1f62:	e8 95       	spm
    1f64:	10 92 fa 00 	sts	0x00FA, r1
    1f68:	10 92 f9 00 	sts	0x00F9, r1
    1f6c:	d0 cf       	rjmp	.-96     	; 0x1f0e <main+0x17c>
    1f6e:	80 e0       	ldi	r24, 0x00	; 0
    1f70:	90 e0       	ldi	r25, 0x00	; 0

00001f72 <calibrateOscillator>:
    1f72:	df 92       	push	r13
    1f74:	ef 92       	push	r14
    1f76:	ff 92       	push	r15
    1f78:	0f 93       	push	r16
    1f7a:	1f 93       	push	r17
    1f7c:	cf 93       	push	r28
    1f7e:	df 93       	push	r29
    1f80:	08 e0       	ldi	r16, 0x08	; 8
    1f82:	10 e0       	ldi	r17, 0x00	; 0
    1f84:	f1 2c       	mov	r15, r1
    1f86:	80 e8       	ldi	r24, 0x80	; 128
    1f88:	e8 2e       	mov	r14, r24
    1f8a:	df 2c       	mov	r13, r15
    1f8c:	de 0c       	add	r13, r14
    1f8e:	d1 be       	out	0x31, r13	; 49
    1f90:	2e db       	rcall	.-2468   	; 0x15ee <usbMeasureFrameLength>
    1f92:	ec 01       	movw	r28, r24
    1f94:	c4 33       	cpi	r28, 0x34	; 52
    1f96:	89 e0       	ldi	r24, 0x09	; 9
    1f98:	d8 07       	cpc	r29, r24
    1f9a:	0c f4       	brge	.+2      	; 0x1f9e <calibrateOscillator+0x2c>
    1f9c:	fd 2c       	mov	r15, r13
    1f9e:	e6 94       	lsr	r14
    1fa0:	01 50       	subi	r16, 0x01	; 1
    1fa2:	11 09       	sbc	r17, r1
    1fa4:	01 15       	cp	r16, r1
    1fa6:	11 05       	cpc	r17, r1
    1fa8:	81 f7       	brne	.-32     	; 0x1f8a <calibrateOscillator+0x18>
    1faa:	1f 2d       	mov	r17, r15
    1fac:	8f ef       	ldi	r24, 0xFF	; 255
    1fae:	8f 0d       	add	r24, r15
    1fb0:	81 bf       	out	0x31, r24	; 49
    1fb2:	21 b7       	in	r18, 0x31	; 49
    1fb4:	30 e0       	ldi	r19, 0x00	; 0
    1fb6:	81 2f       	mov	r24, r17
    1fb8:	90 e0       	ldi	r25, 0x00	; 0
    1fba:	01 96       	adiw	r24, 0x01	; 1
    1fbc:	82 17       	cp	r24, r18
    1fbe:	93 07       	cpc	r25, r19
    1fc0:	84 f0       	brlt	.+32     	; 0x1fe2 <calibrateOscillator+0x70>
    1fc2:	15 db       	rcall	.-2518   	; 0x15ee <usbMeasureFrameLength>
    1fc4:	84 53       	subi	r24, 0x34	; 52
    1fc6:	99 40       	sbci	r25, 0x09	; 9
    1fc8:	97 ff       	sbrs	r25, 7
    1fca:	03 c0       	rjmp	.+6      	; 0x1fd2 <calibrateOscillator+0x60>
    1fcc:	91 95       	neg	r25
    1fce:	81 95       	neg	r24
    1fd0:	91 09       	sbc	r25, r1
    1fd2:	8c 17       	cp	r24, r28
    1fd4:	9d 07       	cpc	r25, r29
    1fd6:	14 f4       	brge	.+4      	; 0x1fdc <calibrateOscillator+0x6a>
    1fd8:	f1 b6       	in	r15, 0x31	; 49
    1fda:	ec 01       	movw	r28, r24
    1fdc:	81 b7       	in	r24, 0x31	; 49
    1fde:	8f 5f       	subi	r24, 0xFF	; 255
    1fe0:	e7 cf       	rjmp	.-50     	; 0x1fb0 <calibrateOscillator+0x3e>
    1fe2:	f1 be       	out	0x31, r15	; 49
    1fe4:	df 91       	pop	r29
    1fe6:	cf 91       	pop	r28
    1fe8:	1f 91       	pop	r17
    1fea:	0f 91       	pop	r16
    1fec:	ff 90       	pop	r15
    1fee:	ef 90       	pop	r14
    1ff0:	df 90       	pop	r13
    1ff2:	08 95       	ret

00001ff4 <_exit>:
    1ff4:	f8 94       	cli

00001ff6 <__stop_program>:
    1ff6:	ff cf       	rjmp	.-2      	; 0x1ff6 <__stop_program>

Disassembly of section .data:

00800060 <__data_start>:
  800060:	ff 5a       	subi	r31, 0xAF	; 175

00800061 <usbTxLen>:
  800061:	5a 68       	Address 0x0000000000800061 is out of bounds.
.word	0xffff	; ????

Disassembly of section .bss:

00800062 <__bss_start>:
  800062:	00 00       	nop

00800063 <wasReset.1966>:
  800063:	00 00       	nop

00800064 <last_page_used>:
  800064:	00 00       	nop

00800065 <fake_page_used>:
  800065:	00 00       	nop

00800066 <fake_page>:
  800066:	00 00       	nop
  800068:	00 00       	nop
  80006a:	00 00       	nop
  80006c:	00 00       	nop
  80006e:	00 00       	nop
  800070:	00 00       	nop
  800072:	00 00       	nop
  800074:	00 00       	nop
  800076:	00 00       	nop
  800078:	00 00       	nop
  80007a:	00 00       	nop
  80007c:	00 00       	nop
  80007e:	00 00       	nop
  800080:	00 00       	nop
  800082:	00 00       	nop
  800084:	00 00       	nop
  800086:	00 00       	nop
  800088:	00 00       	nop
  80008a:	00 00       	nop
  80008c:	00 00       	nop
  80008e:	00 00       	nop
  800090:	00 00       	nop
  800092:	00 00       	nop
  800094:	00 00       	nop
  800096:	00 00       	nop
  800098:	00 00       	nop
  80009a:	00 00       	nop
  80009c:	00 00       	nop
  80009e:	00 00       	nop
  8000a0:	00 00       	nop
  8000a2:	00 00       	nop
  8000a4:	00 00       	nop
  8000a6:	00 00       	nop
  8000a8:	00 00       	nop
  8000aa:	00 00       	nop
  8000ac:	00 00       	nop
  8000ae:	00 00       	nop
  8000b0:	00 00       	nop
  8000b2:	00 00       	nop
  8000b4:	00 00       	nop
  8000b6:	00 00       	nop
  8000b8:	00 00       	nop
  8000ba:	00 00       	nop
  8000bc:	00 00       	nop
  8000be:	00 00       	nop
  8000c0:	00 00       	nop
  8000c2:	00 00       	nop
  8000c4:	00 00       	nop
  8000c6:	00 00       	nop
  8000c8:	00 00       	nop
  8000ca:	00 00       	nop
  8000cc:	00 00       	nop
  8000ce:	00 00       	nop
  8000d0:	00 00       	nop
  8000d2:	00 00       	nop
  8000d4:	00 00       	nop
  8000d6:	00 00       	nop
  8000d8:	00 00       	nop
  8000da:	00 00       	nop
  8000dc:	00 00       	nop
  8000de:	00 00       	nop
  8000e0:	00 00       	nop
  8000e2:	00 00       	nop
  8000e4:	00 00       	nop

008000e6 <blink_cnt>:
  8000e6:	00 00       	nop

008000e7 <need_write_page>:
  8000e7:	00 00       	nop

008000e8 <full_erase_requested>:
  8000e8:	00 00       	nop

008000e9 <buffer>:
  8000e9:	00 00       	nop
  8000eb:	00 00       	nop
  8000ed:	00 00       	nop
  8000ef:	00 00       	nop

008000f1 <remaining>:
  8000f1:	00 00       	nop

008000f2 <cmd0>:
  8000f2:	00 00       	nop

008000f3 <idle_cnt2>:
  8000f3:	00 00       	nop

008000f4 <idle_cnt>:
  8000f4:	00 00       	nop

008000f6 <dirty>:
  8000f6:	00 00       	nop

008000f7 <erase_addr>:
  8000f7:	00 00       	nop

008000f9 <cur_addr>:
  8000f9:	00 00       	nop

008000fb <usb_has_activity>:
  8000fb:	00 00       	nop

008000fc <usb_maybe_finalizing>:
  8000fc:	00 00       	nop

008000fd <usbMsgFlags>:
  8000fd:	00 00       	nop

008000fe <usbTxBuf>:
  8000fe:	00 00       	nop
  800100:	00 00       	nop
  800102:	00 00       	nop
  800104:	00 00       	nop
  800106:	00 00       	nop
  800108:	00 00       	nop

00800109 <usbDeviceAddr>:
  800109:	00 00       	nop

0080010a <usbRxToken>:
  80010a:	00 00       	nop

0080010b <usbInputBufOffset>:
  80010b:	00 00       	nop

0080010c <usbMsgPtr>:
  80010c:	00 00       	nop

0080010e <usbRxLen>:
  80010e:	00 00       	nop

0080010f <usbNewDeviceAddr>:
  80010f:	00 00       	nop

00800110 <usbCurrentTok>:
  800110:	00 00       	nop

00800111 <usbConfiguration>:
  800111:	00 00       	nop

00800112 <usbRxBuf>:
  800112:	00 00       	nop
  800114:	00 00       	nop
  800116:	00 00       	nop
  800118:	00 00       	nop
  80011a:	00 00       	nop
  80011c:	00 00       	nop
  80011e:	00 00       	nop
  800120:	00 00       	nop
  800122:	00 00       	nop
  800124:	00 00       	nop
  800126:	00 00       	nop

Disassembly of section .stab:

00000000 <_end-0x800128>:
   0:	01 00       	.word	0x0001	; ????
   2:	00 00       	nop
   4:	00 00       	nop
   6:	90 00       	.word	0x0090	; ????
   8:	54 00       	.word	0x0054	; ????
   a:	00 00       	nop
   c:	01 00       	.word	0x0001	; ????
   e:	00 00       	nop
  10:	64 00       	.word	0x0064	; ????
  12:	00 00       	nop
  14:	ba 15       	cp	r27, r10
  16:	00 00       	nop
  18:	11 00       	.word	0x0011	; ????
  1a:	00 00       	nop
  1c:	80 00       	.word	0x0080	; ????
  1e:	00 00       	nop
  20:	00 00       	nop
  22:	00 00       	nop
  24:	1b 00       	.word	0x001b	; ????
  26:	00 00       	nop
  28:	24 00       	.word	0x0024	; ????
  2a:	33 00       	.word	0x0033	; ????
  2c:	00 15       	cp	r16, r0
  2e:	00 00       	nop
  30:	28 00       	.word	0x0028	; ????
  32:	00 00       	nop
  34:	84 00       	.word	0x0084	; ????
  36:	00 00       	nop
  38:	00 15       	cp	r16, r0
  3a:	00 00       	nop
  3c:	00 00       	nop
  3e:	00 00       	nop
  40:	44 00       	.word	0x0044	; ????
  42:	34 00       	.word	0x0034	; ????
  44:	00 00       	nop
  46:	00 00       	nop
  48:	00 00       	nop
  4a:	00 00       	nop
  4c:	44 00       	.word	0x0044	; ????
  4e:	35 00       	.word	0x0035	; ????
  50:	02 00       	.word	0x0002	; ????
  52:	00 00       	nop
  54:	00 00       	nop
  56:	00 00       	nop
  58:	44 00       	.word	0x0044	; ????
  5a:	36 00       	.word	0x0036	; ????
  5c:	04 00       	.word	0x0004	; ????
  5e:	00 00       	nop
  60:	00 00       	nop
  62:	00 00       	nop
  64:	44 00       	.word	0x0044	; ????
  66:	37 00       	.word	0x0037	; ????
  68:	06 00       	.word	0x0006	; ????
  6a:	00 00       	nop
  6c:	00 00       	nop
  6e:	00 00       	nop
  70:	44 00       	.word	0x0044	; ????
  72:	38 00       	.word	0x0038	; ????
  74:	08 00       	.word	0x0008	; ????
  76:	00 00       	nop
  78:	00 00       	nop
  7a:	00 00       	nop
  7c:	44 00       	.word	0x0044	; ????
  7e:	39 00       	.word	0x0039	; ????
  80:	0a 00       	.word	0x000a	; ????
  82:	00 00       	nop
  84:	00 00       	nop
  86:	00 00       	nop
  88:	44 00       	.word	0x0044	; ????
  8a:	3a 00       	.word	0x003a	; ????
  8c:	0c 00       	.word	0x000c	; ????
  8e:	00 00       	nop
  90:	00 00       	nop
  92:	00 00       	nop
  94:	44 00       	.word	0x0044	; ????
  96:	3b 00       	.word	0x003b	; ????
  98:	0e 00       	.word	0x000e	; ????
  9a:	00 00       	nop
  9c:	00 00       	nop
  9e:	00 00       	nop
  a0:	44 00       	.word	0x0044	; ????
  a2:	3c 00       	.word	0x003c	; ????
  a4:	10 00       	.word	0x0010	; ????
  a6:	00 00       	nop
  a8:	00 00       	nop
  aa:	00 00       	nop
  ac:	44 00       	.word	0x0044	; ????
  ae:	3d 00       	.word	0x003d	; ????
  b0:	12 00       	.word	0x0012	; ????
  b2:	00 00       	nop
  b4:	00 00       	nop
  b6:	00 00       	nop
  b8:	44 00       	.word	0x0044	; ????
  ba:	3e 00       	.word	0x003e	; ????
  bc:	14 00       	.word	0x0014	; ????
  be:	00 00       	nop
  c0:	00 00       	nop
  c2:	00 00       	nop
  c4:	44 00       	.word	0x0044	; ????
  c6:	3f 00       	.word	0x003f	; ????
  c8:	16 00       	.word	0x0016	; ????
  ca:	00 00       	nop
  cc:	00 00       	nop
  ce:	00 00       	nop
  d0:	44 00       	.word	0x0044	; ????
  d2:	40 00       	.word	0x0040	; ????
  d4:	18 00       	.word	0x0018	; ????
  d6:	00 00       	nop
  d8:	00 00       	nop
  da:	00 00       	nop
  dc:	44 00       	.word	0x0044	; ????
  de:	41 00       	.word	0x0041	; ????
  e0:	1a 00       	.word	0x001a	; ????
  e2:	00 00       	nop
  e4:	00 00       	nop
  e6:	00 00       	nop
  e8:	44 00       	.word	0x0044	; ????
  ea:	42 00       	.word	0x0042	; ????
  ec:	1c 00       	.word	0x001c	; ????
  ee:	00 00       	nop
  f0:	00 00       	nop
  f2:	00 00       	nop
  f4:	44 00       	.word	0x0044	; ????
  f6:	43 00       	.word	0x0043	; ????
  f8:	1e 00       	.word	0x001e	; ????
  fa:	00 00       	nop
  fc:	00 00       	nop
  fe:	00 00       	nop
 100:	44 00       	.word	0x0044	; ????
 102:	44 00       	.word	0x0044	; ????
 104:	1e 00       	.word	0x001e	; ????
 106:	00 00       	nop
 108:	00 00       	nop
 10a:	00 00       	nop
 10c:	44 00       	.word	0x0044	; ????
 10e:	45 00       	.word	0x0045	; ????
 110:	1e 00       	.word	0x001e	; ????
 112:	00 00       	nop
 114:	00 00       	nop
 116:	00 00       	nop
 118:	44 00       	.word	0x0044	; ????
 11a:	46 00       	.word	0x0046	; ????
 11c:	1e 00       	.word	0x001e	; ????
 11e:	00 00       	nop
 120:	00 00       	nop
 122:	00 00       	nop
 124:	44 00       	.word	0x0044	; ????
 126:	47 00       	.word	0x0047	; ????
 128:	1e 00       	.word	0x001e	; ????
 12a:	00 00       	nop
 12c:	00 00       	nop
 12e:	00 00       	nop
 130:	44 00       	.word	0x0044	; ????
 132:	48 00       	.word	0x0048	; ????
 134:	1e 00       	.word	0x001e	; ????
 136:	00 00       	nop
 138:	00 00       	nop
 13a:	00 00       	nop
 13c:	44 00       	.word	0x0044	; ????
 13e:	49 00       	.word	0x0049	; ????
 140:	1e 00       	.word	0x001e	; ????
 142:	00 00       	nop
 144:	00 00       	nop
 146:	00 00       	nop
 148:	44 00       	.word	0x0044	; ????
 14a:	4a 00       	.word	0x004a	; ????
 14c:	1e 00       	.word	0x001e	; ????
 14e:	00 00       	nop
 150:	00 00       	nop
 152:	00 00       	nop
 154:	44 00       	.word	0x0044	; ????
 156:	4b 00       	.word	0x004b	; ????
 158:	1e 00       	.word	0x001e	; ????
 15a:	00 00       	nop
 15c:	00 00       	nop
 15e:	00 00       	nop
 160:	44 00       	.word	0x0044	; ????
 162:	4c 00       	.word	0x004c	; ????
 164:	1e 00       	.word	0x001e	; ????
 166:	00 00       	nop
 168:	00 00       	nop
 16a:	00 00       	nop
 16c:	44 00       	.word	0x0044	; ????
 16e:	4d 00       	.word	0x004d	; ????
 170:	1e 00       	.word	0x001e	; ????
 172:	00 00       	nop
 174:	00 00       	nop
 176:	00 00       	nop
 178:	44 00       	.word	0x0044	; ????
 17a:	4e 00       	.word	0x004e	; ????
 17c:	1e 00       	.word	0x001e	; ????
 17e:	00 00       	nop
 180:	00 00       	nop
 182:	00 00       	nop
 184:	44 00       	.word	0x0044	; ????
 186:	4f 00       	.word	0x004f	; ????
 188:	1e 00       	.word	0x001e	; ????
 18a:	00 00       	nop
 18c:	00 00       	nop
 18e:	00 00       	nop
 190:	44 00       	.word	0x0044	; ????
 192:	50 00       	.word	0x0050	; ????
 194:	1e 00       	.word	0x001e	; ????
 196:	00 00       	nop
 198:	00 00       	nop
 19a:	00 00       	nop
 19c:	44 00       	.word	0x0044	; ????
 19e:	51 00       	.word	0x0051	; ????
 1a0:	1e 00       	.word	0x001e	; ????
 1a2:	00 00       	nop
 1a4:	00 00       	nop
 1a6:	00 00       	nop
 1a8:	44 00       	.word	0x0044	; ????
 1aa:	52 00       	.word	0x0052	; ????
 1ac:	1e 00       	.word	0x001e	; ????
 1ae:	00 00       	nop
 1b0:	00 00       	nop
 1b2:	00 00       	nop
 1b4:	44 00       	.word	0x0044	; ????
 1b6:	53 00       	.word	0x0053	; ????
 1b8:	1e 00       	.word	0x001e	; ????
 1ba:	00 00       	nop
 1bc:	00 00       	nop
 1be:	00 00       	nop
 1c0:	44 00       	.word	0x0044	; ????
 1c2:	54 00       	.word	0x0054	; ????
 1c4:	1e 00       	.word	0x001e	; ????
 1c6:	00 00       	nop
 1c8:	00 00       	nop
 1ca:	00 00       	nop
 1cc:	44 00       	.word	0x0044	; ????
 1ce:	55 00       	.word	0x0055	; ????
 1d0:	1e 00       	.word	0x001e	; ????
 1d2:	00 00       	nop
 1d4:	00 00       	nop
 1d6:	00 00       	nop
 1d8:	44 00       	.word	0x0044	; ????
 1da:	56 00       	.word	0x0056	; ????
 1dc:	1e 00       	.word	0x001e	; ????
 1de:	00 00       	nop
 1e0:	00 00       	nop
 1e2:	00 00       	nop
 1e4:	44 00       	.word	0x0044	; ????
 1e6:	57 00       	.word	0x0057	; ????
 1e8:	1e 00       	.word	0x001e	; ????
 1ea:	00 00       	nop
 1ec:	00 00       	nop
 1ee:	00 00       	nop
 1f0:	44 00       	.word	0x0044	; ????
 1f2:	58 00       	.word	0x0058	; ????
 1f4:	1e 00       	.word	0x001e	; ????
 1f6:	00 00       	nop
 1f8:	00 00       	nop
 1fa:	00 00       	nop
 1fc:	44 00       	.word	0x0044	; ????
 1fe:	59 00       	.word	0x0059	; ????
 200:	1e 00       	.word	0x001e	; ????
 202:	00 00       	nop
 204:	00 00       	nop
 206:	00 00       	nop
 208:	44 00       	.word	0x0044	; ????
 20a:	5a 00       	.word	0x005a	; ????
 20c:	1e 00       	.word	0x001e	; ????
 20e:	00 00       	nop
 210:	00 00       	nop
 212:	00 00       	nop
 214:	44 00       	.word	0x0044	; ????
 216:	5b 00       	.word	0x005b	; ????
 218:	1e 00       	.word	0x001e	; ????
 21a:	00 00       	nop
 21c:	00 00       	nop
 21e:	00 00       	nop
 220:	44 00       	.word	0x0044	; ????
 222:	5c 00       	.word	0x005c	; ????
 224:	1e 00       	.word	0x001e	; ????
 226:	00 00       	nop
 228:	00 00       	nop
 22a:	00 00       	nop
 22c:	44 00       	.word	0x0044	; ????
 22e:	5d 00       	.word	0x005d	; ????
 230:	1e 00       	.word	0x001e	; ????
 232:	00 00       	nop
 234:	00 00       	nop
 236:	00 00       	nop
 238:	44 00       	.word	0x0044	; ????
 23a:	5e 00       	.word	0x005e	; ????
 23c:	1e 00       	.word	0x001e	; ????
 23e:	00 00       	nop
 240:	00 00       	nop
 242:	00 00       	nop
 244:	44 00       	.word	0x0044	; ????
 246:	5f 00       	.word	0x005f	; ????
 248:	1e 00       	.word	0x001e	; ????
 24a:	00 00       	nop
 24c:	00 00       	nop
 24e:	00 00       	nop
 250:	44 00       	.word	0x0044	; ????
 252:	60 00       	.word	0x0060	; ????
 254:	1e 00       	.word	0x001e	; ????
 256:	00 00       	nop
 258:	00 00       	nop
 25a:	00 00       	nop
 25c:	44 00       	.word	0x0044	; ????
 25e:	61 00       	.word	0x0061	; ????
 260:	1e 00       	.word	0x001e	; ????
 262:	00 00       	nop
 264:	00 00       	nop
 266:	00 00       	nop
 268:	44 00       	.word	0x0044	; ????
 26a:	62 00       	.word	0x0062	; ????
 26c:	1e 00       	.word	0x001e	; ????
 26e:	00 00       	nop
 270:	00 00       	nop
 272:	00 00       	nop
 274:	44 00       	.word	0x0044	; ????
 276:	63 00       	.word	0x0063	; ????
 278:	1e 00       	.word	0x001e	; ????
 27a:	00 00       	nop
 27c:	00 00       	nop
 27e:	00 00       	nop
 280:	44 00       	.word	0x0044	; ????
 282:	64 00       	.word	0x0064	; ????
 284:	1e 00       	.word	0x001e	; ????
 286:	00 00       	nop
 288:	00 00       	nop
 28a:	00 00       	nop
 28c:	44 00       	.word	0x0044	; ????
 28e:	65 00       	.word	0x0065	; ????
 290:	1e 00       	.word	0x001e	; ????
 292:	00 00       	nop
 294:	00 00       	nop
 296:	00 00       	nop
 298:	44 00       	.word	0x0044	; ????
 29a:	66 00       	.word	0x0066	; ????
 29c:	1e 00       	.word	0x001e	; ????
 29e:	00 00       	nop
 2a0:	00 00       	nop
 2a2:	00 00       	nop
 2a4:	44 00       	.word	0x0044	; ????
 2a6:	67 00       	.word	0x0067	; ????
 2a8:	1e 00       	.word	0x001e	; ????
 2aa:	00 00       	nop
 2ac:	00 00       	nop
 2ae:	00 00       	nop
 2b0:	44 00       	.word	0x0044	; ????
 2b2:	68 00       	.word	0x0068	; ????
 2b4:	1e 00       	.word	0x001e	; ????
 2b6:	00 00       	nop
 2b8:	00 00       	nop
 2ba:	00 00       	nop
 2bc:	44 00       	.word	0x0044	; ????
 2be:	69 00       	.word	0x0069	; ????
 2c0:	1e 00       	.word	0x001e	; ????
 2c2:	00 00       	nop
 2c4:	00 00       	nop
 2c6:	00 00       	nop
 2c8:	44 00       	.word	0x0044	; ????
 2ca:	6a 00       	.word	0x006a	; ????
 2cc:	1e 00       	.word	0x001e	; ????
 2ce:	00 00       	nop
 2d0:	00 00       	nop
 2d2:	00 00       	nop
 2d4:	44 00       	.word	0x0044	; ????
 2d6:	6b 00       	.word	0x006b	; ????
 2d8:	1e 00       	.word	0x001e	; ????
 2da:	00 00       	nop
 2dc:	00 00       	nop
 2de:	00 00       	nop
 2e0:	44 00       	.word	0x0044	; ????
 2e2:	6c 00       	.word	0x006c	; ????
 2e4:	1e 00       	.word	0x001e	; ????
 2e6:	00 00       	nop
 2e8:	00 00       	nop
 2ea:	00 00       	nop
 2ec:	44 00       	.word	0x0044	; ????
 2ee:	6d 00       	.word	0x006d	; ????
 2f0:	1e 00       	.word	0x001e	; ????
 2f2:	00 00       	nop
 2f4:	00 00       	nop
 2f6:	00 00       	nop
 2f8:	44 00       	.word	0x0044	; ????
 2fa:	6e 00       	.word	0x006e	; ????
 2fc:	1e 00       	.word	0x001e	; ????
 2fe:	00 00       	nop
 300:	00 00       	nop
 302:	00 00       	nop
 304:	44 00       	.word	0x0044	; ????
 306:	6f 00       	.word	0x006f	; ????
 308:	1e 00       	.word	0x001e	; ????
 30a:	00 00       	nop
 30c:	00 00       	nop
 30e:	00 00       	nop
 310:	44 00       	.word	0x0044	; ????
 312:	70 00       	.word	0x0070	; ????
 314:	1e 00       	.word	0x001e	; ????
 316:	00 00       	nop
 318:	00 00       	nop
 31a:	00 00       	nop
 31c:	44 00       	.word	0x0044	; ????
 31e:	71 00       	.word	0x0071	; ????
 320:	1e 00       	.word	0x001e	; ????
 322:	00 00       	nop
 324:	00 00       	nop
 326:	00 00       	nop
 328:	44 00       	.word	0x0044	; ????
 32a:	72 00       	.word	0x0072	; ????
 32c:	1e 00       	.word	0x001e	; ????
 32e:	00 00       	nop
 330:	00 00       	nop
 332:	00 00       	nop
 334:	44 00       	.word	0x0044	; ????
 336:	73 00       	.word	0x0073	; ????
 338:	1e 00       	.word	0x001e	; ????
 33a:	00 00       	nop
 33c:	00 00       	nop
 33e:	00 00       	nop
 340:	44 00       	.word	0x0044	; ????
 342:	74 00       	.word	0x0074	; ????
 344:	1e 00       	.word	0x001e	; ????
 346:	00 00       	nop
 348:	00 00       	nop
 34a:	00 00       	nop
 34c:	44 00       	.word	0x0044	; ????
 34e:	75 00       	.word	0x0075	; ????
 350:	1e 00       	.word	0x001e	; ????
 352:	00 00       	nop
 354:	00 00       	nop
 356:	00 00       	nop
 358:	44 00       	.word	0x0044	; ????
 35a:	76 00       	.word	0x0076	; ????
 35c:	1e 00       	.word	0x001e	; ????
 35e:	00 00       	nop
 360:	00 00       	nop
 362:	00 00       	nop
 364:	44 00       	.word	0x0044	; ????
 366:	77 00       	.word	0x0077	; ????
 368:	1e 00       	.word	0x001e	; ????
 36a:	00 00       	nop
 36c:	00 00       	nop
 36e:	00 00       	nop
 370:	44 00       	.word	0x0044	; ????
 372:	78 00       	.word	0x0078	; ????
 374:	1e 00       	.word	0x001e	; ????
 376:	00 00       	nop
 378:	00 00       	nop
 37a:	00 00       	nop
 37c:	44 00       	.word	0x0044	; ????
 37e:	79 00       	.word	0x0079	; ????
 380:	1e 00       	.word	0x001e	; ????
 382:	00 00       	nop
 384:	00 00       	nop
 386:	00 00       	nop
 388:	44 00       	.word	0x0044	; ????
 38a:	7a 00       	.word	0x007a	; ????
 38c:	1e 00       	.word	0x001e	; ????
 38e:	00 00       	nop
 390:	00 00       	nop
 392:	00 00       	nop
 394:	44 00       	.word	0x0044	; ????
 396:	7b 00       	.word	0x007b	; ????
 398:	1e 00       	.word	0x001e	; ????
 39a:	00 00       	nop
 39c:	00 00       	nop
 39e:	00 00       	nop
 3a0:	44 00       	.word	0x0044	; ????
 3a2:	7c 00       	.word	0x007c	; ????
 3a4:	1e 00       	.word	0x001e	; ????
 3a6:	00 00       	nop
 3a8:	00 00       	nop
 3aa:	00 00       	nop
 3ac:	44 00       	.word	0x0044	; ????
 3ae:	7d 00       	.word	0x007d	; ????
 3b0:	1e 00       	.word	0x001e	; ????
 3b2:	00 00       	nop
 3b4:	00 00       	nop
 3b6:	00 00       	nop
 3b8:	44 00       	.word	0x0044	; ????
 3ba:	7e 00       	.word	0x007e	; ????
 3bc:	1e 00       	.word	0x001e	; ????
 3be:	00 00       	nop
 3c0:	00 00       	nop
 3c2:	00 00       	nop
 3c4:	44 00       	.word	0x0044	; ????
 3c6:	7f 00       	.word	0x007f	; ????
 3c8:	1e 00       	.word	0x001e	; ????
 3ca:	00 00       	nop
 3cc:	00 00       	nop
 3ce:	00 00       	nop
 3d0:	44 00       	.word	0x0044	; ????
 3d2:	80 00       	.word	0x0080	; ????
 3d4:	1e 00       	.word	0x001e	; ????
 3d6:	00 00       	nop
 3d8:	00 00       	nop
 3da:	00 00       	nop
 3dc:	44 00       	.word	0x0044	; ????
 3de:	81 00       	.word	0x0081	; ????
 3e0:	1e 00       	.word	0x001e	; ????
 3e2:	00 00       	nop
 3e4:	00 00       	nop
 3e6:	00 00       	nop
 3e8:	44 00       	.word	0x0044	; ????
 3ea:	82 00       	.word	0x0082	; ????
 3ec:	1e 00       	.word	0x001e	; ????
 3ee:	00 00       	nop
 3f0:	00 00       	nop
 3f2:	00 00       	nop
 3f4:	44 00       	.word	0x0044	; ????
 3f6:	83 00       	.word	0x0083	; ????
 3f8:	1e 00       	.word	0x001e	; ????
 3fa:	00 00       	nop
 3fc:	00 00       	nop
 3fe:	00 00       	nop
 400:	44 00       	.word	0x0044	; ????
 402:	84 00       	.word	0x0084	; ????
 404:	1e 00       	.word	0x001e	; ????
 406:	00 00       	nop
 408:	00 00       	nop
 40a:	00 00       	nop
 40c:	44 00       	.word	0x0044	; ????
 40e:	85 00       	.word	0x0085	; ????
 410:	1e 00       	.word	0x001e	; ????
 412:	00 00       	nop
 414:	00 00       	nop
 416:	00 00       	nop
 418:	44 00       	.word	0x0044	; ????
 41a:	86 00       	.word	0x0086	; ????
 41c:	1e 00       	.word	0x001e	; ????
 41e:	00 00       	nop
 420:	00 00       	nop
 422:	00 00       	nop
 424:	44 00       	.word	0x0044	; ????
 426:	87 00       	.word	0x0087	; ????
 428:	1e 00       	.word	0x001e	; ????
 42a:	00 00       	nop
 42c:	00 00       	nop
 42e:	00 00       	nop
 430:	44 00       	.word	0x0044	; ????
 432:	88 00       	.word	0x0088	; ????
 434:	1e 00       	.word	0x001e	; ????
 436:	00 00       	nop
 438:	00 00       	nop
 43a:	00 00       	nop
 43c:	44 00       	.word	0x0044	; ????
 43e:	89 00       	.word	0x0089	; ????
 440:	1e 00       	.word	0x001e	; ????
 442:	00 00       	nop
 444:	00 00       	nop
 446:	00 00       	nop
 448:	44 00       	.word	0x0044	; ????
 44a:	8a 00       	.word	0x008a	; ????
 44c:	1e 00       	.word	0x001e	; ????
 44e:	00 00       	nop
 450:	00 00       	nop
 452:	00 00       	nop
 454:	44 00       	.word	0x0044	; ????
 456:	8b 00       	.word	0x008b	; ????
 458:	1e 00       	.word	0x001e	; ????
 45a:	00 00       	nop
 45c:	00 00       	nop
 45e:	00 00       	nop
 460:	44 00       	.word	0x0044	; ????
 462:	8c 00       	.word	0x008c	; ????
 464:	1e 00       	.word	0x001e	; ????
 466:	00 00       	nop
 468:	00 00       	nop
 46a:	00 00       	nop
 46c:	44 00       	.word	0x0044	; ????
 46e:	8d 00       	.word	0x008d	; ????
 470:	1e 00       	.word	0x001e	; ????
 472:	00 00       	nop
 474:	00 00       	nop
 476:	00 00       	nop
 478:	44 00       	.word	0x0044	; ????
 47a:	8e 00       	.word	0x008e	; ????
 47c:	1e 00       	.word	0x001e	; ????
 47e:	00 00       	nop
 480:	00 00       	nop
 482:	00 00       	nop
 484:	44 00       	.word	0x0044	; ????
 486:	8f 00       	.word	0x008f	; ????
 488:	1e 00       	.word	0x001e	; ????
 48a:	00 00       	nop
 48c:	00 00       	nop
 48e:	00 00       	nop
 490:	44 00       	.word	0x0044	; ????
 492:	90 00       	.word	0x0090	; ????
 494:	1e 00       	.word	0x001e	; ????
 496:	00 00       	nop
 498:	00 00       	nop
 49a:	00 00       	nop
 49c:	44 00       	.word	0x0044	; ????
 49e:	91 00       	.word	0x0091	; ????
 4a0:	1e 00       	.word	0x001e	; ????
 4a2:	00 00       	nop
 4a4:	00 00       	nop
 4a6:	00 00       	nop
 4a8:	44 00       	.word	0x0044	; ????
 4aa:	92 00       	.word	0x0092	; ????
 4ac:	1e 00       	.word	0x001e	; ????
 4ae:	00 00       	nop
 4b0:	00 00       	nop
 4b2:	00 00       	nop
 4b4:	44 00       	.word	0x0044	; ????
 4b6:	93 00       	.word	0x0093	; ????
 4b8:	1e 00       	.word	0x001e	; ????
 4ba:	00 00       	nop
 4bc:	00 00       	nop
 4be:	00 00       	nop
 4c0:	44 00       	.word	0x0044	; ????
 4c2:	94 00       	.word	0x0094	; ????
 4c4:	1e 00       	.word	0x001e	; ????
 4c6:	00 00       	nop
 4c8:	00 00       	nop
 4ca:	00 00       	nop
 4cc:	44 00       	.word	0x0044	; ????
 4ce:	95 00       	.word	0x0095	; ????
 4d0:	1e 00       	.word	0x001e	; ????
 4d2:	00 00       	nop
 4d4:	00 00       	nop
 4d6:	00 00       	nop
 4d8:	44 00       	.word	0x0044	; ????
 4da:	96 00       	.word	0x0096	; ????
 4dc:	1e 00       	.word	0x001e	; ????
 4de:	00 00       	nop
 4e0:	00 00       	nop
 4e2:	00 00       	nop
 4e4:	44 00       	.word	0x0044	; ????
 4e6:	97 00       	.word	0x0097	; ????
 4e8:	1e 00       	.word	0x001e	; ????
 4ea:	00 00       	nop
 4ec:	00 00       	nop
 4ee:	00 00       	nop
 4f0:	44 00       	.word	0x0044	; ????
 4f2:	98 00       	.word	0x0098	; ????
 4f4:	1e 00       	.word	0x001e	; ????
 4f6:	00 00       	nop
 4f8:	00 00       	nop
 4fa:	00 00       	nop
 4fc:	44 00       	.word	0x0044	; ????
 4fe:	99 00       	.word	0x0099	; ????
 500:	1e 00       	.word	0x001e	; ????
 502:	00 00       	nop
 504:	00 00       	nop
 506:	00 00       	nop
 508:	44 00       	.word	0x0044	; ????
 50a:	9a 00       	.word	0x009a	; ????
 50c:	1e 00       	.word	0x001e	; ????
 50e:	00 00       	nop
 510:	00 00       	nop
 512:	00 00       	nop
 514:	44 00       	.word	0x0044	; ????
 516:	9b 00       	.word	0x009b	; ????
 518:	1e 00       	.word	0x001e	; ????
 51a:	00 00       	nop
 51c:	00 00       	nop
 51e:	00 00       	nop
 520:	44 00       	.word	0x0044	; ????
 522:	9c 00       	.word	0x009c	; ????
 524:	1e 00       	.word	0x001e	; ????
 526:	00 00       	nop
 528:	00 00       	nop
 52a:	00 00       	nop
 52c:	44 00       	.word	0x0044	; ????
 52e:	9d 00       	.word	0x009d	; ????
 530:	1e 00       	.word	0x001e	; ????
 532:	00 00       	nop
 534:	00 00       	nop
 536:	00 00       	nop
 538:	44 00       	.word	0x0044	; ????
 53a:	9e 00       	.word	0x009e	; ????
 53c:	1e 00       	.word	0x001e	; ????
 53e:	00 00       	nop
 540:	00 00       	nop
 542:	00 00       	nop
 544:	44 00       	.word	0x0044	; ????
 546:	9f 00       	.word	0x009f	; ????
 548:	1e 00       	.word	0x001e	; ????
 54a:	00 00       	nop
 54c:	00 00       	nop
 54e:	00 00       	nop
 550:	44 00       	.word	0x0044	; ????
 552:	a0 00       	.word	0x00a0	; ????
 554:	1e 00       	.word	0x001e	; ????
 556:	00 00       	nop
 558:	00 00       	nop
 55a:	00 00       	nop
 55c:	44 00       	.word	0x0044	; ????
 55e:	a1 00       	.word	0x00a1	; ????
 560:	1e 00       	.word	0x001e	; ????
 562:	00 00       	nop
 564:	00 00       	nop
 566:	00 00       	nop
 568:	44 00       	.word	0x0044	; ????
 56a:	a2 00       	.word	0x00a2	; ????
 56c:	1e 00       	.word	0x001e	; ????
 56e:	00 00       	nop
 570:	00 00       	nop
 572:	00 00       	nop
 574:	44 00       	.word	0x0044	; ????
 576:	a3 00       	.word	0x00a3	; ????
 578:	1e 00       	.word	0x001e	; ????
 57a:	00 00       	nop
 57c:	00 00       	nop
 57e:	00 00       	nop
 580:	44 00       	.word	0x0044	; ????
 582:	a4 00       	.word	0x00a4	; ????
 584:	1e 00       	.word	0x001e	; ????
 586:	00 00       	nop
 588:	00 00       	nop
 58a:	00 00       	nop
 58c:	44 00       	.word	0x0044	; ????
 58e:	a5 00       	.word	0x00a5	; ????
 590:	1e 00       	.word	0x001e	; ????
 592:	00 00       	nop
 594:	00 00       	nop
 596:	00 00       	nop
 598:	44 00       	.word	0x0044	; ????
 59a:	a6 00       	.word	0x00a6	; ????
 59c:	1e 00       	.word	0x001e	; ????
 59e:	00 00       	nop
 5a0:	00 00       	nop
 5a2:	00 00       	nop
 5a4:	44 00       	.word	0x0044	; ????
 5a6:	a7 00       	.word	0x00a7	; ????
 5a8:	1e 00       	.word	0x001e	; ????
 5aa:	00 00       	nop
 5ac:	00 00       	nop
 5ae:	00 00       	nop
 5b0:	44 00       	.word	0x0044	; ????
 5b2:	a8 00       	.word	0x00a8	; ????
 5b4:	1e 00       	.word	0x001e	; ????
 5b6:	00 00       	nop
 5b8:	00 00       	nop
 5ba:	00 00       	nop
 5bc:	44 00       	.word	0x0044	; ????
 5be:	a9 00       	.word	0x00a9	; ????
 5c0:	1e 00       	.word	0x001e	; ????
 5c2:	00 00       	nop
 5c4:	00 00       	nop
 5c6:	00 00       	nop
 5c8:	44 00       	.word	0x0044	; ????
 5ca:	aa 00       	.word	0x00aa	; ????
 5cc:	1e 00       	.word	0x001e	; ????
 5ce:	00 00       	nop
 5d0:	00 00       	nop
 5d2:	00 00       	nop
 5d4:	44 00       	.word	0x0044	; ????
 5d6:	ab 00       	.word	0x00ab	; ????
 5d8:	1e 00       	.word	0x001e	; ????
 5da:	00 00       	nop
 5dc:	00 00       	nop
 5de:	00 00       	nop
 5e0:	44 00       	.word	0x0044	; ????
 5e2:	ac 00       	.word	0x00ac	; ????
 5e4:	1e 00       	.word	0x001e	; ????
 5e6:	00 00       	nop
 5e8:	00 00       	nop
 5ea:	00 00       	nop
 5ec:	44 00       	.word	0x0044	; ????
 5ee:	ad 00       	.word	0x00ad	; ????
 5f0:	1e 00       	.word	0x001e	; ????
 5f2:	00 00       	nop
 5f4:	00 00       	nop
 5f6:	00 00       	nop
 5f8:	44 00       	.word	0x0044	; ????
 5fa:	ae 00       	.word	0x00ae	; ????
 5fc:	1e 00       	.word	0x001e	; ????
 5fe:	00 00       	nop
 600:	00 00       	nop
 602:	00 00       	nop
 604:	44 00       	.word	0x0044	; ????
 606:	af 00       	.word	0x00af	; ????
 608:	1e 00       	.word	0x001e	; ????
 60a:	00 00       	nop
 60c:	00 00       	nop
 60e:	00 00       	nop
 610:	44 00       	.word	0x0044	; ????
 612:	b0 00       	.word	0x00b0	; ????
 614:	1e 00       	.word	0x001e	; ????
 616:	00 00       	nop
 618:	00 00       	nop
 61a:	00 00       	nop
 61c:	44 00       	.word	0x0044	; ????
 61e:	b1 00       	.word	0x00b1	; ????
 620:	1e 00       	.word	0x001e	; ????
 622:	00 00       	nop
 624:	00 00       	nop
 626:	00 00       	nop
 628:	44 00       	.word	0x0044	; ????
 62a:	b2 00       	.word	0x00b2	; ????
 62c:	1e 00       	.word	0x001e	; ????
 62e:	00 00       	nop
 630:	00 00       	nop
 632:	00 00       	nop
 634:	44 00       	.word	0x0044	; ????
 636:	b3 00       	.word	0x00b3	; ????
 638:	1e 00       	.word	0x001e	; ????
 63a:	00 00       	nop
 63c:	00 00       	nop
 63e:	00 00       	nop
 640:	24 00       	.word	0x0024	; ????
 642:	00 00       	nop
 644:	1e 00       	.word	0x001e	; ????
 646:	00 00       	nop
 648:	41 00       	.word	0x0041	; ????
 64a:	00 00       	nop
 64c:	24 00       	.word	0x0024	; ????
 64e:	c0 00       	.word	0x00c0	; ????
 650:	ba 15       	cp	r27, r10
 652:	00 00       	nop
 654:	00 00       	nop
 656:	00 00       	nop
 658:	44 00       	.word	0x0044	; ????
 65a:	c3 00       	.word	0x00c3	; ????
 65c:	00 00       	nop
 65e:	00 00       	nop
 660:	00 00       	nop
 662:	00 00       	nop
 664:	24 00       	.word	0x0024	; ????
 666:	00 00       	nop
 668:	02 00       	.word	0x0002	; ????
 66a:	00 00       	nop
 66c:	00 00       	nop
 66e:	00 00       	nop
 670:	44 00       	.word	0x0044	; ????
 672:	d8 00       	.word	0x00d8	; ????
 674:	6e 15       	cp	r22, r14
 676:	00 00       	nop
 678:	00 00       	nop
 67a:	00 00       	nop
 67c:	44 00       	.word	0x0044	; ????
 67e:	d9 00       	.word	0x00d9	; ????
 680:	70 15       	cp	r23, r0
 682:	00 00       	nop
 684:	00 00       	nop
 686:	00 00       	nop
 688:	44 00       	.word	0x0044	; ????
 68a:	da 00       	.word	0x00da	; ????
 68c:	72 15       	cp	r23, r2
 68e:	00 00       	nop
 690:	00 00       	nop
 692:	00 00       	nop
 694:	44 00       	.word	0x0044	; ????
 696:	dc 00       	.word	0x00dc	; ????
 698:	74 15       	cp	r23, r4
 69a:	00 00       	nop
 69c:	00 00       	nop
 69e:	00 00       	nop
 6a0:	44 00       	.word	0x0044	; ????
 6a2:	dd 00       	.word	0x00dd	; ????
 6a4:	76 15       	cp	r23, r6
 6a6:	00 00       	nop
 6a8:	00 00       	nop
 6aa:	00 00       	nop
 6ac:	44 00       	.word	0x0044	; ????
 6ae:	df 00       	.word	0x00df	; ????
 6b0:	78 15       	cp	r23, r8
 6b2:	00 00       	nop
 6b4:	00 00       	nop
 6b6:	00 00       	nop
 6b8:	44 00       	.word	0x0044	; ????
 6ba:	24 01       	movw	r4, r8
 6bc:	b6 15       	cp	r27, r6
 6be:	00 00       	nop
 6c0:	00 00       	nop
 6c2:	00 00       	nop
 6c4:	44 00       	.word	0x0044	; ????
 6c6:	25 01       	movw	r4, r10
 6c8:	b8 15       	cp	r27, r8
 6ca:	00 00       	nop

Disassembly of section .stabstr:

00000000 <.stabstr>:
   0:	00 2f       	mov	r16, r16
   2:	74 6d       	ori	r23, 0xD4	; 212
   4:	70 2f       	mov	r23, r16
   6:	63 63       	ori	r22, 0x33	; 51
   8:	51 30       	cpi	r21, 0x01	; 1
   a:	65 62       	ori	r22, 0x25	; 37
   c:	68 30       	cpi	r22, 0x08	; 8
   e:	2e 73       	andi	r18, 0x3E	; 62
  10:	00 76       	andi	r16, 0x60	; 96
  12:	6f 69       	ori	r22, 0x9F	; 159
  14:	64 3a       	cpi	r22, 0xA4	; 164
  16:	74 31       	cpi	r23, 0x14	; 20
  18:	3d 31       	cpi	r19, 0x1D	; 29
  1a:	00 5f       	subi	r16, 0xF0	; 240
  1c:	5f 76       	andi	r21, 0x6F	; 111
  1e:	65 63       	ori	r22, 0x35	; 53
  20:	74 6f       	ori	r23, 0xF4	; 244
  22:	72 73       	andi	r23, 0x32	; 50
  24:	3a 46       	sbci	r19, 0x6A	; 106
  26:	31 00       	.word	0x0031	; ????
  28:	2e 2e       	mov	r2, r30
  2a:	2f 2e       	mov	r2, r31
  2c:	2e 2f       	mov	r18, r30
  2e:	2e 2e       	mov	r2, r30
  30:	2f 2e       	mov	r2, r31
  32:	2e 2f       	mov	r18, r30
  34:	63 72       	andi	r22, 0x23	; 35
  36:	74 31       	cpi	r23, 0x14	; 20
  38:	2f 67       	ori	r18, 0x7F	; 127
  3a:	63 72       	andi	r22, 0x23	; 35
  3c:	74 31       	cpi	r23, 0x14	; 20
  3e:	2e 53       	subi	r18, 0x3E	; 62
  40:	00 5f       	subi	r16, 0xF0	; 240
  42:	5f 62       	ori	r21, 0x2F	; 47
  44:	61 64       	ori	r22, 0x41	; 65
  46:	5f 69       	ori	r21, 0x9F	; 159
  48:	6e 74       	andi	r22, 0x4E	; 78
  4a:	65 72       	andi	r22, 0x25	; 37
  4c:	72 75       	andi	r23, 0x52	; 82
  4e:	70 74       	andi	r23, 0x40	; 64
  50:	3a 46       	sbci	r19, 0x6A	; 106
  52:	31 00       	.word	0x0031	; ????

Disassembly of section .comment:

00000000 <.comment>:
   0:	47 43       	sbci	r20, 0x37	; 55
   2:	43 3a       	cpi	r20, 0xA3	; 163
   4:	20 28       	or	r2, r0
   6:	47 4e       	sbci	r20, 0xE7	; 231
   8:	55 29       	or	r21, r5
   a:	20 34       	cpi	r18, 0x40	; 64
   c:	2e 38       	cpi	r18, 0x8E	; 142
   e:	2e 32       	cpi	r18, 0x2E	; 46
  10:	00 00       	Address 0x0000000000000010 is out of bounds.
.word	0xffff	; ????
