
flash_me_hv.hex:     file format ihex


Disassembly of section .sec1:

00000000 <.sec1>:
   0:	7f ca       	rjmp	.-2818   	;  0xfffff500
   2:	7f ca       	rjmp	.-2818   	;  0xfffff502
   4:	7f ca       	rjmp	.-2818   	;  0xfffff504
   6:	7f ca       	rjmp	.-2818   	;  0xfffff506
   8:	7f ca       	rjmp	.-2818   	;  0xfffff508
   a:	7f ca       	rjmp	.-2818   	;  0xfffff50a
   c:	7f ca       	rjmp	.-2818   	;  0xfffff50c
   e:	7f ca       	rjmp	.-2818   	;  0xfffff50e

Disassembly of section .sec2:

00001500 <.sec2>:
    1500:	36 c0       	rjmp	.+108    	;  0x156e
    1502:	5b c0       	rjmp	.+182    	;  0x15ba
    1504:	87 c0       	rjmp	.+270    	;  0x1614
    1506:	59 c0       	rjmp	.+178    	;  0x15ba
    1508:	58 c0       	rjmp	.+176    	;  0x15ba
    150a:	57 c0       	rjmp	.+174    	;  0x15ba
    150c:	56 c0       	rjmp	.+172    	;  0x15ba
    150e:	55 c0       	rjmp	.+170    	;  0x15ba
    1510:	54 c0       	rjmp	.+168    	;  0x15ba
    1512:	53 c0       	rjmp	.+166    	;  0x15ba
    1514:	52 c0       	rjmp	.+164    	;  0x15ba
    1516:	51 c0       	rjmp	.+162    	;  0x15ba
    1518:	50 c0       	rjmp	.+160    	;  0x15ba
    151a:	4f c0       	rjmp	.+158    	;  0x15ba
    151c:	4e c0       	rjmp	.+156    	;  0x15ba
    151e:	09 02       	muls	r16, r25
    1520:	12 00       	.word	0x0012	; ????
    1522:	01 01       	movw	r0, r2
    1524:	00 80       	ld	r0, Z
    1526:	32 09       	sbc	r19, r2
    1528:	04 00       	.word	0x0004	; ????
    152a:	00 00       	nop
    152c:	00 00       	nop
    152e:	00 00       	nop
    1530:	12 01       	movw	r2, r4
    1532:	10 01       	movw	r2, r0
    1534:	ff 00       	.word	0x00ff	; ????
    1536:	00 08       	sbc	r0, r0
    1538:	09 12       	cpse	r0, r25
    153a:	01 eb       	ldi	r16, 0xB1	; 177
    153c:	00 01       	movw	r0, r0
    153e:	01 02       	muls	r16, r17
    1540:	00 01       	movw	r0, r0
    1542:	08 03       	fmul	r16, r16
    1544:	45 00       	.word	0x0045	; ????
    1546:	42 00       	.word	0x0042	; ????
    1548:	31 00       	.word	0x0031	; ????
    154a:	20 03       	mulsu	r18, r16
    154c:	52 00       	.word	0x0052	; ????
    154e:	6f 00       	.word	0x006f	; ????
    1550:	62 00       	.word	0x0062	; ????
    1552:	6f 00       	.word	0x006f	; ????
    1554:	74 00       	.word	0x0074	; ????
    1556:	4d 00       	.word	0x004d	; ????
    1558:	61 00       	.word	0x0061	; ????
    155a:	6b 00       	.word	0x006b	; ????
    155c:	65 00       	.word	0x0065	; ????
    155e:	72 00       	.word	0x0072	; ????
    1560:	2e 00       	.word	0x002e	; ????
    1562:	63 00       	.word	0x0063	; ????
    1564:	6c 00       	.word	0x006c	; ????
    1566:	75 00       	.word	0x0075	; ????
    1568:	62 00       	.word	0x0062	; ????
    156a:	04 03       	mulsu	r16, r20
    156c:	09 04       	cpc	r0, r9
    156e:	11 24       	eor	r1, r1
    1570:	1f be       	out	0x3f, r1	; 63
    1572:	cf e5       	ldi	r28, 0x5F	; 95
    1574:	d2 e0       	ldi	r29, 0x02	; 2
    1576:	de bf       	out	0x3e, r29	; 62
    1578:	cd bf       	out	0x3d, r28	; 61
    157a:	84 b7       	in	r24, 0x34	; 52
    157c:	87 7f       	andi	r24, 0xF7	; 247
    157e:	84 bf       	out	0x34, r24	; 52
    1580:	88 e1       	ldi	r24, 0x18	; 24
    1582:	0f b6       	in	r0, 0x3f	; 63
    1584:	f8 94       	cli
    1586:	81 bd       	out	0x21, r24	; 33
    1588:	11 bc       	out	0x21, r1	; 33
    158a:	0f be       	out	0x3f, r0	; 63
    158c:	0a ea       	ldi	r16, 0xAA	; 170
    158e:	0f 93       	push	r16
    1590:	10 e0       	ldi	r17, 0x00	; 0
    1592:	a0 e6       	ldi	r26, 0x60	; 96
    1594:	b0 e0       	ldi	r27, 0x00	; 0
    1596:	e8 ef       	ldi	r30, 0xF8	; 248
    1598:	ff e1       	ldi	r31, 0x1F	; 31
    159a:	02 c0       	rjmp	.+4      	;  0x15a0
    159c:	05 90       	lpm	r0, Z+
    159e:	0d 92       	st	X+, r0
    15a0:	a2 36       	cpi	r26, 0x62	; 98
    15a2:	b1 07       	cpc	r27, r17
    15a4:	d9 f7       	brne	.-10     	;  0x159c
    15a6:	11 e0       	ldi	r17, 0x01	; 1
    15a8:	a2 e6       	ldi	r26, 0x62	; 98
    15aa:	b0 e0       	ldi	r27, 0x00	; 0
    15ac:	01 c0       	rjmp	.+2      	;  0x15b0
    15ae:	1d 92       	st	X+, r1
    15b0:	a8 32       	cpi	r26, 0x28	; 40
    15b2:	b1 07       	cpc	r27, r17
    15b4:	e1 f7       	brne	.-8      	;  0x15ae
    15b6:	ed d3       	rcall	.+2010   	;  0x1d92
    15b8:	1d c5       	rjmp	.+2618   	;  0x1ff4
    15ba:	a2 cf       	rjmp	.-188    	;  0x1500
    15bc:	a8 2f       	mov	r26, r24
    15be:	b9 2f       	mov	r27, r25
    15c0:	80 e0       	ldi	r24, 0x00	; 0
    15c2:	90 e0       	ldi	r25, 0x00	; 0
    15c4:	41 e0       	ldi	r20, 0x01	; 1
    15c6:	50 ea       	ldi	r21, 0xA0	; 160
    15c8:	60 95       	com	r22
    15ca:	30 e0       	ldi	r19, 0x00	; 0
    15cc:	09 c0       	rjmp	.+18     	;  0x15e0
    15ce:	2d 91       	ld	r18, X+
    15d0:	82 27       	eor	r24, r18
    15d2:	97 95       	ror	r25
    15d4:	87 95       	ror	r24
    15d6:	10 f0       	brcs	.+4      	;  0x15dc
    15d8:	84 27       	eor	r24, r20
    15da:	95 27       	eor	r25, r21
    15dc:	30 5e       	subi	r19, 0xE0	; 224
    15de:	c8 f3       	brcs	.-14     	;  0x15d2
    15e0:	6f 5f       	subi	r22, 0xFF	; 255
    15e2:	a8 f3       	brcs	.-22     	;  0x15ce
    15e4:	08 95       	ret
    15e6:	ea df       	rcall	.-44     	;  0x15bc
    15e8:	8d 93       	st	X+, r24
    15ea:	9d 93       	st	X+, r25
    15ec:	08 95       	ret
    15ee:	a6 e0       	ldi	r26, 0x06	; 6
    15f0:	88 27       	eor	r24, r24
    15f2:	99 27       	eor	r25, r25
    15f4:	aa 95       	dec	r26
    15f6:	69 f0       	breq	.+26     	;  0x1612
    15f8:	01 97       	sbiw	r24, 0x01	; 1
    15fa:	e1 f3       	breq	.-8      	;  0x15f4
    15fc:	b3 99       	sbic	0x16, 3	; 22
    15fe:	fc cf       	rjmp	.-8      	;  0x15f8
    1600:	b3 9b       	sbis	0x16, 3	; 22
    1602:	fe cf       	rjmp	.-4      	;  0x1600
    1604:	81 e0       	ldi	r24, 0x01	; 1
    1606:	99 27       	eor	r25, r25
    1608:	a6 b3       	in	r26, 0x16	; 22
    160a:	01 96       	adiw	r24, 0x01	; 1
    160c:	11 f0       	breq	.+4      	;  0x1612
    160e:	a8 71       	andi	r26, 0x18	; 24
    1610:	d9 f7       	brne	.-10     	;  0x1608
    1612:	08 95       	ret
    1614:	cf 93       	push	r28
    1616:	cf b7       	in	r28, 0x3f	; 63
    1618:	cf 93       	push	r28
    161a:	c0 91 5f 02 	lds	r28, 0x025F
    161e:	ca 3a       	cpi	r28, 0xAA	; 170
    1620:	21 f0       	breq	.+8      	;  0x162a
    1622:	cf 91       	pop	r28
    1624:	cf bf       	out	0x3f, r28	; 63
    1626:	cf 91       	pop	r28
    1628:	69 cf       	rjmp	.-302    	;  0x14fc
    162a:	cc 27       	eor	r28, r28
    162c:	c3 95       	inc	r28
    162e:	b3 9b       	sbis	0x16, 3	; 22
    1630:	e9 f7       	brne	.-6      	;  0x162c
    1632:	b3 9b       	sbis	0x16, 3	; 22
    1634:	0b c0       	rjmp	.+22     	;  0x164c
    1636:	b3 9b       	sbis	0x16, 3	; 22
    1638:	09 c0       	rjmp	.+18     	;  0x164c
    163a:	b3 9b       	sbis	0x16, 3	; 22
    163c:	07 c0       	rjmp	.+14     	;  0x164c
    163e:	b3 9b       	sbis	0x16, 3	; 22
    1640:	05 c0       	rjmp	.+10     	;  0x164c
    1642:	b3 9b       	sbis	0x16, 3	; 22
    1644:	03 c0       	rjmp	.+6      	;  0x164c
    1646:	b3 9b       	sbis	0x16, 3	; 22
    1648:	01 c0       	rjmp	.+2      	;  0x164c
    164a:	d3 c0       	rjmp	.+422    	;  0x17f2
    164c:	0f 92       	push	r0
    164e:	df 93       	push	r29
    1650:	c0 91 0b 01 	lds	r28, 0x010B
    1654:	dd 27       	eor	r29, r29
    1656:	ce 5e       	subi	r28, 0xEE	; 238
    1658:	de 4f       	sbci	r29, 0xFE	; 254
    165a:	01 2e       	mov	r0, r17
    165c:	b3 9b       	sbis	0x16, 3	; 22
    165e:	03 c0       	rjmp	.+6      	;  0x1666
    1660:	df 91       	pop	r29
    1662:	0f 90       	pop	r0
    1664:	e6 cf       	rjmp	.-52     	;  0x1632
    1666:	2f 93       	push	r18
    1668:	0f 93       	push	r16
    166a:	1f 93       	push	r17
    166c:	4f 93       	push	r20
    166e:	2f ef       	ldi	r18, 0xFF	; 255
    1670:	4f 6f       	ori	r20, 0xFF	; 255
    1672:	06 b3       	in	r16, 0x16	; 22
    1674:	03 fb       	bst	r16, 3
    1676:	20 f9       	bld	r18, 0
    1678:	5f 93       	push	r21
    167a:	3f 93       	push	r19
    167c:	50 e0       	ldi	r21, 0x00	; 0
    167e:	3b e0       	ldi	r19, 0x0B	; 11
    1680:	65 c0       	rjmp	.+202    	;  0x174c
    1682:	16 b3       	in	r17, 0x16	; 22
    1684:	01 26       	eor	r0, r17
    1686:	50 29       	or	r21, r0
    1688:	53 fd       	sbrc	r21, 3
    168a:	c8 95       	lpm
    168c:	56 b3       	in	r21, 0x16	; 22
    168e:	01 27       	eor	r16, r17
    1690:	03 fb       	bst	r16, 3
    1692:	25 f9       	bld	r18, 5
    1694:	2f 73       	andi	r18, 0x3F	; 63
    1696:	06 b3       	in	r16, 0x16	; 22
    1698:	b1 f0       	breq	.+44     	;  0x16c6
    169a:	50 27       	eor	r21, r16
    169c:	10 27       	eor	r17, r16
    169e:	13 fb       	bst	r17, 3
    16a0:	26 f9       	bld	r18, 6
    16a2:	06 b2       	in	r0, 0x16	; 22
    16a4:	22 30       	cpi	r18, 0x02	; 2
    16a6:	f0 f0       	brcs	.+60     	;  0x16e4
    16a8:	00 c0       	rjmp	.+0      	;  0x16aa
    16aa:	16 b3       	in	r17, 0x16	; 22
    16ac:	01 27       	eor	r16, r17
    16ae:	03 fb       	bst	r16, 3
    16b0:	27 f9       	bld	r18, 7
    16b2:	01 26       	eor	r0, r17
    16b4:	50 29       	or	r21, r0
    16b6:	06 b2       	in	r0, 0x16	; 22
    16b8:	24 30       	cpi	r18, 0x04	; 4
    16ba:	e8 f5       	brcc	.+122    	;  0x1736
    16bc:	4f 77       	andi	r20, 0x7F	; 127
    16be:	20 68       	ori	r18, 0x80	; 128
    16c0:	16 b3       	in	r17, 0x16	; 22
    16c2:	00 00       	nop
    16c4:	f6 cf       	rjmp	.-20     	;  0x16b2
    16c6:	50 27       	eor	r21, r16
    16c8:	4f 7d       	andi	r20, 0xDF	; 223
    16ca:	20 62       	ori	r18, 0x20	; 32
    16cc:	06 b2       	in	r0, 0x16	; 22
    16ce:	10 2f       	mov	r17, r16
    16d0:	00 00       	nop
    16d2:	00 c0       	rjmp	.+0      	;  0x16d4
    16d4:	06 b3       	in	r16, 0x16	; 22
    16d6:	00 26       	eor	r0, r16
    16d8:	50 29       	or	r21, r0
    16da:	10 27       	eor	r17, r16
    16dc:	13 fb       	bst	r17, 3
    16de:	26 f9       	bld	r18, 6
    16e0:	06 b2       	in	r0, 0x16	; 22
    16e2:	e2 cf       	rjmp	.-60     	;  0x16a8
    16e4:	4f 7b       	andi	r20, 0xBF	; 191
    16e6:	06 b3       	in	r16, 0x16	; 22
    16e8:	20 64       	ori	r18, 0x40	; 64
    16ea:	00 c0       	rjmp	.+0      	;  0x16ec
    16ec:	da cf       	rjmp	.-76     	;  0x16a2
    16ee:	01 26       	eor	r0, r17
    16f0:	50 29       	or	r21, r0
    16f2:	18 71       	andi	r17, 0x18	; 24
    16f4:	06 b2       	in	r0, 0x16	; 22
    16f6:	69 f1       	breq	.+90     	;  0x1752
    16f8:	4e 7f       	andi	r20, 0xFE	; 254
    16fa:	21 60       	ori	r18, 0x01	; 1
    16fc:	01 2f       	mov	r16, r17
    16fe:	16 b3       	in	r17, 0x16	; 22
    1700:	28 c0       	rjmp	.+80     	;  0x1752
    1702:	00 26       	eor	r0, r16
    1704:	50 29       	or	r21, r0
    1706:	4d 7f       	andi	r20, 0xFD	; 253
    1708:	06 b2       	in	r0, 0x16	; 22
    170a:	22 60       	ori	r18, 0x02	; 2
    170c:	10 2f       	mov	r17, r16
    170e:	29 c0       	rjmp	.+82     	;  0x1762
    1710:	01 26       	eor	r0, r17
    1712:	50 29       	or	r21, r0
    1714:	4b 7f       	andi	r20, 0xFB	; 251
    1716:	06 b2       	in	r0, 0x16	; 22
    1718:	24 60       	ori	r18, 0x04	; 4
    171a:	01 2f       	mov	r16, r17
    171c:	2d c0       	rjmp	.+90     	;  0x1778
    171e:	16 b3       	in	r17, 0x16	; 22
    1720:	01 26       	eor	r0, r17
    1722:	50 29       	or	r21, r0
    1724:	47 7f       	andi	r20, 0xF7	; 247
    1726:	28 60       	ori	r18, 0x08	; 8
    1728:	00 00       	nop
    172a:	06 b2       	in	r0, 0x16	; 22
    172c:	2e c0       	rjmp	.+92     	;  0x178a
    172e:	4f 7e       	andi	r20, 0xEF	; 239
    1730:	06 b3       	in	r16, 0x16	; 22
    1732:	20 61       	ori	r18, 0x10	; 16
    1734:	30 c0       	rjmp	.+96     	;  0x1796
    1736:	42 27       	eor	r20, r18
    1738:	06 b3       	in	r16, 0x16	; 22
    173a:	49 93       	st	Y+, r20
    173c:	00 26       	eor	r0, r16
    173e:	50 29       	or	r21, r0
    1740:	10 27       	eor	r17, r16
    1742:	06 b2       	in	r0, 0x16	; 22
    1744:	4f ef       	ldi	r20, 0xFF	; 255
    1746:	13 fb       	bst	r17, 3
    1748:	20 f9       	bld	r18, 0
    174a:	29 7f       	andi	r18, 0xF9	; 249
    174c:	16 b3       	in	r17, 0x16	; 22
    174e:	79 f2       	breq	.-98     	;  0x16ee
    1750:	18 71       	andi	r17, 0x18	; 24
    1752:	59 f1       	breq	.+86     	;  0x17aa
    1754:	01 26       	eor	r0, r17
    1756:	50 29       	or	r21, r0
    1758:	06 b2       	in	r0, 0x16	; 22
    175a:	01 27       	eor	r16, r17
    175c:	03 fb       	bst	r16, 3
    175e:	21 f9       	bld	r18, 1
    1760:	23 7f       	andi	r18, 0xF3	; 243
    1762:	06 b3       	in	r16, 0x16	; 22
    1764:	71 f2       	breq	.-100    	;  0x1702
    1766:	00 26       	eor	r0, r16
    1768:	50 29       	or	r21, r0
    176a:	31 50       	subi	r19, 0x01	; 1
    176c:	d0 f0       	brcs	.+52     	;  0x17a2
    176e:	06 b2       	in	r0, 0x16	; 22
    1770:	10 27       	eor	r17, r16
    1772:	13 fb       	bst	r17, 3
    1774:	22 f9       	bld	r18, 2
    1776:	27 7e       	andi	r18, 0xE7	; 231
    1778:	16 b3       	in	r17, 0x16	; 22
    177a:	51 f2       	breq	.-108    	;  0x1710
    177c:	01 26       	eor	r0, r17
    177e:	50 29       	or	r21, r0
    1780:	01 27       	eor	r16, r17
    1782:	03 fb       	bst	r16, 3
    1784:	06 b2       	in	r0, 0x16	; 22
    1786:	23 f9       	bld	r18, 3
    1788:	2f 7c       	andi	r18, 0xCF	; 207
    178a:	49 f2       	breq	.-110    	;  0x171e
    178c:	00 00       	nop
    178e:	06 b3       	in	r16, 0x16	; 22
    1790:	10 27       	eor	r17, r16
    1792:	13 fb       	bst	r17, 3
    1794:	24 f9       	bld	r18, 4
    1796:	00 26       	eor	r0, r16
    1798:	50 29       	or	r21, r0
    179a:	06 b2       	in	r0, 0x16	; 22
    179c:	2f 79       	andi	r18, 0x9F	; 159
    179e:	39 f2       	breq	.-114    	;  0x172e
    17a0:	70 cf       	rjmp	.-288    	;  0x1682
    17a2:	10 e2       	ldi	r17, 0x20	; 32
    17a4:	1a bf       	out	0x3a, r17	; 58
    17a6:	00 27       	eor	r16, r16
    17a8:	17 c0       	rjmp	.+46     	;  0x17d8
    17aa:	3b 50       	subi	r19, 0x0B	; 11
    17ac:	31 95       	neg	r19
    17ae:	c3 1b       	sub	r28, r19
    17b0:	d0 40       	sbci	r29, 0x00	; 0
    17b2:	10 e2       	ldi	r17, 0x20	; 32
    17b4:	1a bf       	out	0x3a, r17	; 58
    17b6:	08 81       	ld	r16, Y
    17b8:	03 3c       	cpi	r16, 0xC3	; 195
    17ba:	f9 f0       	breq	.+62     	;  0x17fa
    17bc:	0b 34       	cpi	r16, 0x4B	; 75
    17be:	e9 f0       	breq	.+58     	;  0x17fa
    17c0:	20 91 09 01 	lds	r18, 0x0109
    17c4:	19 81       	ldd	r17, Y+1	; 0x01
    17c6:	11 0f       	add	r17, r17
    17c8:	12 13       	cpse	r17, r18
    17ca:	ed cf       	rjmp	.-38     	;  0x17a6
    17cc:	09 36       	cpi	r16, 0x69	; 105
    17ce:	51 f1       	breq	.+84     	;  0x1824
    17d0:	0d 32       	cpi	r16, 0x2D	; 45
    17d2:	11 f0       	breq	.+4      	;  0x17d8
    17d4:	01 3e       	cpi	r16, 0xE1	; 225
    17d6:	39 f7       	brne	.-50     	;  0x17a6
    17d8:	00 93 10 01 	sts	0x0110, r16
    17dc:	3f 91       	pop	r19
    17de:	5f 91       	pop	r21
    17e0:	4f 91       	pop	r20
    17e2:	1f 91       	pop	r17
    17e4:	0f 91       	pop	r16
    17e6:	2f 91       	pop	r18
    17e8:	df 91       	pop	r29
    17ea:	0f 90       	pop	r0
    17ec:	ca b7       	in	r28, 0x3a	; 58
    17ee:	c5 fd       	sbrc	r28, 5
    17f0:	1d cf       	rjmp	.-454    	;  0x162c
    17f2:	cf 91       	pop	r28
    17f4:	cf bf       	out	0x3f, r28	; 63
    17f6:	cf 91       	pop	r28
    17f8:	18 95       	reti
    17fa:	20 91 10 01 	lds	r18, 0x0110
    17fe:	22 23       	and	r18, r18
    1800:	69 f3       	breq	.-38     	;  0x17dc
    1802:	10 91 0e 01 	lds	r17, 0x010E
    1806:	11 23       	and	r17, r17
    1808:	21 f5       	brne	.+72     	;  0x1852
    180a:	34 30       	cpi	r19, 0x04	; 4
    180c:	22 f1       	brmi	.+72     	;  0x1856
    180e:	30 93 0e 01 	sts	0x010E, r19
    1812:	20 93 0a 01 	sts	0x010A, r18
    1816:	10 91 0b 01 	lds	r17, 0x010B
    181a:	3b e0       	ldi	r19, 0x0B	; 11
    181c:	31 1b       	sub	r19, r17
    181e:	30 93 0b 01 	sts	0x010B, r19
    1822:	19 c0       	rjmp	.+50     	;  0x1856
    1824:	00 91 0e 01 	lds	r16, 0x010E
    1828:	01 30       	cpi	r16, 0x01	; 1
    182a:	9c f4       	brge	.+38     	;  0x1852
    182c:	0a e5       	ldi	r16, 0x5A	; 90
    182e:	30 91 61 00 	lds	r19, 0x0061
    1832:	34 fd       	sbrc	r19, 4
    1834:	11 c0       	rjmp	.+34     	;  0x1858
    1836:	00 93 61 00 	sts	0x0061, r16
    183a:	ce ef       	ldi	r28, 0xFE	; 254
    183c:	d0 e0       	ldi	r29, 0x00	; 0
    183e:	10 c0       	rjmp	.+32     	;  0x1860
    1840:	05 27       	eor	r16, r21
    1842:	10 e0       	ldi	r17, 0x00	; 0
    1844:	00 c0       	rjmp	.+0      	;  0x1846
    1846:	21 c0       	rjmp	.+66     	;  0x188a
    1848:	05 27       	eor	r16, r21
    184a:	10 e0       	ldi	r17, 0x00	; 0
    184c:	c8 95       	lpm
    184e:	08 bb       	out	0x18, r16	; 24
    1850:	14 c0       	rjmp	.+40     	;  0x187a
    1852:	3a e5       	ldi	r19, 0x5A	; 90
    1854:	01 c0       	rjmp	.+2      	;  0x1858
    1856:	32 ed       	ldi	r19, 0xD2	; 210
    1858:	03 2e       	mov	r0, r19
    185a:	c0 e0       	ldi	r28, 0x00	; 0
    185c:	d0 e0       	ldi	r29, 0x00	; 0
    185e:	32 e0       	ldi	r19, 0x02	; 2
    1860:	17 b3       	in	r17, 0x17	; 23
    1862:	18 61       	ori	r17, 0x18	; 24
    1864:	c3 9a       	sbi	0x18, 3	; 24
    1866:	08 b3       	in	r16, 0x18	; 24
    1868:	17 bb       	out	0x17, r17	; 23
    186a:	58 e1       	ldi	r21, 0x18	; 24
    186c:	20 e8       	ldi	r18, 0x80	; 128
    186e:	4f ef       	ldi	r20, 0xFF	; 255
    1870:	20 ff       	sbrs	r18, 0
    1872:	05 27       	eor	r16, r21
    1874:	08 bb       	out	0x18, r16	; 24
    1876:	27 95       	ror	r18
    1878:	17 95       	ror	r17
    187a:	1c 3f       	cpi	r17, 0xFC	; 252
    187c:	28 f7       	brcc	.-54     	;  0x1848
    187e:	00 00       	nop
    1880:	45 52       	subi	r20, 0x25	; 37
    1882:	b0 f7       	brcc	.-20     	;  0x1870
    1884:	20 ff       	sbrs	r18, 0
    1886:	05 27       	eor	r16, r21
    1888:	27 95       	ror	r18
    188a:	08 bb       	out	0x18, r16	; 24
    188c:	17 95       	ror	r17
    188e:	1c 3f       	cpi	r17, 0xFC	; 252
    1890:	b8 f6       	brcc	.-82     	;  0x1840
    1892:	29 91       	ld	r18, Y+
    1894:	3a 95       	dec	r19
    1896:	61 f7       	brne	.-40     	;  0x1870
    1898:	07 7e       	andi	r16, 0xE7	; 231
    189a:	10 91 0f 01 	lds	r17, 0x010F
    189e:	11 0f       	add	r17, r17
    18a0:	08 bb       	out	0x18, r16	; 24
    18a2:	c2 50       	subi	r28, 0x02	; 2
    18a4:	d0 40       	sbci	r29, 0x00	; 0
    18a6:	11 f0       	breq	.+4      	;  0x18ac
    18a8:	10 93 09 01 	sts	0x0109, r17
    18ac:	10 e2       	ldi	r17, 0x20	; 32
    18ae:	1a bf       	out	0x3a, r17	; 58
    18b0:	08 60       	ori	r16, 0x08	; 8
    18b2:	17 b3       	in	r17, 0x17	; 23
    18b4:	17 7e       	andi	r17, 0xE7	; 231
    18b6:	40 2f       	mov	r20, r16
    18b8:	47 7e       	andi	r20, 0xE7	; 231
    18ba:	54 e0       	ldi	r21, 0x04	; 4
    18bc:	5a 95       	dec	r21
    18be:	f1 f7       	brne	.-4      	;  0x18bc
    18c0:	08 bb       	out	0x18, r16	; 24
    18c2:	17 bb       	out	0x17, r17	; 23
    18c4:	48 bb       	out	0x18, r20	; 24
    18c6:	8a cf       	rjmp	.-236    	;  0x17dc
    18c8:	20 91 f9 00 	lds	r18, 0x00F9
    18cc:	30 91 fa 00 	lds	r19, 0x00FA
    18d0:	2d 3f       	cpi	r18, 0xFD	; 253
    18d2:	34 41       	sbci	r19, 0x14	; 20
    18d4:	b8 f4       	brcc	.+46     	;  0x1904
    18d6:	21 e0       	ldi	r18, 0x01	; 1
    18d8:	20 93 f6 00 	sts	0x00F6, r18
    18dc:	f8 94       	cli
    18de:	e0 91 f9 00 	lds	r30, 0x00F9
    18e2:	f0 91 fa 00 	lds	r31, 0x00FA
    18e6:	0c 01       	movw	r0, r24
    18e8:	20 93 57 00 	sts	0x0057, r18
    18ec:	e8 95       	spm
    18ee:	11 24       	eor	r1, r1
    18f0:	78 94       	sei
    18f2:	80 91 f9 00 	lds	r24, 0x00F9
    18f6:	90 91 fa 00 	lds	r25, 0x00FA
    18fa:	02 96       	adiw	r24, 0x02	; 2
    18fc:	90 93 fa 00 	sts	0x00FA, r25
    1900:	80 93 f9 00 	sts	0x00F9, r24
    1904:	08 95       	ret
    1906:	80 91 f6 00 	lds	r24, 0x00F6
    190a:	88 23       	and	r24, r24
    190c:	09 f4       	brne	.+2      	;  0x1910
    190e:	3d c0       	rjmp	.+122    	;  0x198a
    1910:	80 91 f9 00 	lds	r24, 0x00F9
    1914:	90 91 fa 00 	lds	r25, 0x00FA
    1918:	81 30       	cpi	r24, 0x01	; 1
    191a:	95 41       	sbci	r25, 0x15	; 21
    191c:	08 f0       	brcs	.+2      	;  0x1920
    191e:	35 c0       	rjmp	.+106    	;  0x198a
    1920:	f8 94       	cli
    1922:	80 91 f9 00 	lds	r24, 0x00F9
    1926:	90 91 fa 00 	lds	r25, 0x00FA
    192a:	82 3c       	cpi	r24, 0xC2	; 194
    192c:	94 41       	sbci	r25, 0x14	; 20
    192e:	18 f1       	brcs	.+70     	;  0x1976
    1930:	80 91 66 00 	lds	r24, 0x0066
    1934:	90 91 67 00 	lds	r25, 0x0067
    1938:	8f 57       	subi	r24, 0x7F	; 127
    193a:	9a 40       	sbci	r25, 0x0A	; 10
    193c:	9f 70       	andi	r25, 0x0F	; 15
    193e:	90 6c       	ori	r25, 0xC0	; 192
    1940:	ee ef       	ldi	r30, 0xFE	; 254
    1942:	f4 e1       	ldi	r31, 0x14	; 20
    1944:	21 e0       	ldi	r18, 0x01	; 1
    1946:	0c 01       	movw	r0, r24
    1948:	20 93 57 00 	sts	0x0057, r18
    194c:	e8 95       	spm
    194e:	11 24       	eor	r1, r1
    1950:	80 91 6e 00 	lds	r24, 0x006E
    1954:	90 91 6f 00 	lds	r25, 0x006F
    1958:	8c 57       	subi	r24, 0x7C	; 124
    195a:	9a 40       	sbci	r25, 0x0A	; 10
    195c:	9f 70       	andi	r25, 0x0F	; 15
    195e:	90 6c       	ori	r25, 0xC0	; 192
    1960:	ec ef       	ldi	r30, 0xFC	; 252
    1962:	f4 e1       	ldi	r31, 0x14	; 20
    1964:	0c 01       	movw	r0, r24
    1966:	20 93 57 00 	sts	0x0057, r18
    196a:	e8 95       	spm
    196c:	11 24       	eor	r1, r1
    196e:	78 94       	sei
    1970:	81 e0       	ldi	r24, 0x01	; 1
    1972:	80 93 64 00 	sts	0x0064, r24
    1976:	e0 91 f9 00 	lds	r30, 0x00F9
    197a:	f0 91 fa 00 	lds	r31, 0x00FA
    197e:	32 97       	sbiw	r30, 0x02	; 2
    1980:	85 e0       	ldi	r24, 0x05	; 5
    1982:	80 93 57 00 	sts	0x0057, r24
    1986:	e8 95       	spm
    1988:	78 94       	sei
    198a:	10 92 f6 00 	sts	0x00F6, r1
    198e:	08 95       	ret
    1990:	ff 92       	push	r15
    1992:	0f 93       	push	r16
    1994:	1f 93       	push	r17
    1996:	cf 93       	push	r28
    1998:	df 93       	push	r29
    199a:	80 91 0e 01 	lds	r24, 0x010E
    199e:	83 50       	subi	r24, 0x03	; 3
    19a0:	87 fd       	sbrc	r24, 7
    19a2:	5a c1       	rjmp	.+692    	;  0x1c58
    19a4:	90 91 0b 01 	lds	r25, 0x010B
    19a8:	ac e0       	ldi	r26, 0x0C	; 12
    19aa:	b0 e0       	ldi	r27, 0x00	; 0
    19ac:	a9 1b       	sub	r26, r25
    19ae:	b1 09       	sbc	r27, r1
    19b0:	ae 5e       	subi	r26, 0xEE	; 238
    19b2:	be 4f       	sbci	r27, 0xFE	; 254
    19b4:	31 e0       	ldi	r19, 0x01	; 1
    19b6:	30 93 62 00 	sts	0x0062, r19
    19ba:	90 91 0a 01 	lds	r25, 0x010A
    19be:	9d 32       	cpi	r25, 0x2D	; 45
    19c0:	09 f0       	breq	.+2      	;  0x19c4
    19c2:	0a c1       	rjmp	.+532    	;  0x1bd8
    19c4:	88 30       	cpi	r24, 0x08	; 8
    19c6:	09 f0       	breq	.+2      	;  0x19ca
    19c8:	45 c1       	rjmp	.+650    	;  0x1c54
    19ca:	83 ec       	ldi	r24, 0xC3	; 195
    19cc:	80 93 fe 00 	sts	0x00FE, r24
    19d0:	8a e5       	ldi	r24, 0x5A	; 90
    19d2:	80 93 61 00 	sts	0x0061, r24
    19d6:	10 92 fd 00 	sts	0x00FD, r1
    19da:	8c 91       	ld	r24, X
    19dc:	80 76       	andi	r24, 0x60	; 96
    19de:	09 f4       	brne	.+2      	;  0x19e2
    19e0:	7d c0       	rjmp	.+250    	;  0x1adc
    19e2:	10 92 f3 00 	sts	0x00F3, r1
    19e6:	10 92 f5 00 	sts	0x00F5, r1
    19ea:	10 92 f4 00 	sts	0x00F4, r1
    19ee:	11 96       	adiw	r26, 0x01	; 1
    19f0:	2c 91       	ld	r18, X
    19f2:	11 97       	sbiw	r26, 0x01	; 1
    19f4:	21 30       	cpi	r18, 0x01	; 1
    19f6:	09 f4       	brne	.+2      	;  0x19fa
    19f8:	69 c0       	rjmp	.+210    	;  0x1acc
    19fa:	26 30       	cpi	r18, 0x06	; 6
    19fc:	21 f4       	brne	.+8      	;  0x1a06
    19fe:	81 e0       	ldi	r24, 0x01	; 1
    1a00:	80 93 fc 00 	sts	0x00FC, r24
    1a04:	67 c0       	rjmp	.+206    	;  0x1ad4
    1a06:	27 30       	cpi	r18, 0x07	; 7
    1a08:	09 f0       	breq	.+2      	;  0x1a0c
    1a0a:	40 c0       	rjmp	.+128    	;  0x1a8c
    1a0c:	30 93 fc 00 	sts	0x00FC, r19
    1a10:	89 ee       	ldi	r24, 0xE9	; 233
    1a12:	90 e0       	ldi	r25, 0x00	; 0
    1a14:	90 93 0d 01 	sts	0x010D, r25
    1a18:	80 93 0c 01 	sts	0x010C, r24
    1a1c:	13 96       	adiw	r26, 0x03	; 3
    1a1e:	9c 91       	ld	r25, X
    1a20:	13 97       	sbiw	r26, 0x03	; 3
    1a22:	90 93 eb 00 	sts	0x00EB, r25
    1a26:	10 92 ec 00 	sts	0x00EC, r1
    1a2a:	12 96       	adiw	r26, 0x02	; 2
    1a2c:	8c 91       	ld	r24, X
    1a2e:	12 97       	sbiw	r26, 0x02	; 2
    1a30:	80 33       	cpi	r24, 0x30	; 48
    1a32:	79 f4       	brne	.+30     	;  0x1a52
    1a34:	91 11       	cpse	r25, r1
    1a36:	4c c0       	rjmp	.+152    	;  0x1ad0
    1a38:	14 96       	adiw	r26, 0x04	; 4
    1a3a:	ec 91       	ld	r30, X
    1a3c:	14 97       	sbiw	r26, 0x04	; 4
    1a3e:	f0 e0       	ldi	r31, 0x00	; 0
    1a40:	ee 0f       	add	r30, r30
    1a42:	ff 1f       	adc	r31, r31
    1a44:	81 e2       	ldi	r24, 0x21	; 33
    1a46:	80 93 57 00 	sts	0x0057, r24
    1a4a:	e4 91       	lpm	r30, Z
    1a4c:	e0 93 ec 00 	sts	0x00EC, r30
    1a50:	3f c0       	rjmp	.+126    	;  0x1ad0
    1a52:	8c 3a       	cpi	r24, 0xAC	; 172
    1a54:	81 f4       	brne	.+32     	;  0x1a76
    1a56:	90 38       	cpi	r25, 0x80	; 128
    1a58:	d9 f5       	brne	.+118    	;  0x1ad0
    1a5a:	14 96       	adiw	r26, 0x04	; 4
    1a5c:	8c 91       	ld	r24, X
    1a5e:	14 97       	sbiw	r26, 0x04	; 4
    1a60:	81 11       	cpse	r24, r1
    1a62:	36 c0       	rjmp	.+108    	;  0x1ad0
    1a64:	15 96       	adiw	r26, 0x05	; 5
    1a66:	8c 91       	ld	r24, X
    1a68:	15 97       	sbiw	r26, 0x05	; 5
    1a6a:	81 11       	cpse	r24, r1
    1a6c:	31 c0       	rjmp	.+98     	;  0x1ad0
    1a6e:	81 e0       	ldi	r24, 0x01	; 1
    1a70:	80 93 e8 00 	sts	0x00E8, r24
    1a74:	2d c0       	rjmp	.+90     	;  0x1ad0
    1a76:	8c 34       	cpi	r24, 0x4C	; 76
    1a78:	59 f5       	brne	.+86     	;  0x1ad0
    1a7a:	15 96       	adiw	r26, 0x05	; 5
    1a7c:	8c 91       	ld	r24, X
    1a7e:	15 97       	sbiw	r26, 0x05	; 5
    1a80:	81 11       	cpse	r24, r1
    1a82:	26 c0       	rjmp	.+76     	;  0x1ad0
    1a84:	81 e0       	ldi	r24, 0x01	; 1
    1a86:	80 93 e7 00 	sts	0x00E7, r24
    1a8a:	22 c0       	rjmp	.+68     	;  0x1ad0
    1a8c:	28 30       	cpi	r18, 0x08	; 8
    1a8e:	09 f4       	brne	.+2      	;  0x1a92
    1a90:	b6 cf       	rjmp	.-148    	;  0x19fe
    1a92:	14 96       	adiw	r26, 0x04	; 4
    1a94:	8d 91       	ld	r24, X+
    1a96:	9c 91       	ld	r25, X
    1a98:	15 97       	sbiw	r26, 0x05	; 5
    1a9a:	90 93 fa 00 	sts	0x00FA, r25
    1a9e:	80 93 f9 00 	sts	0x00F9, r24
    1aa2:	16 96       	adiw	r26, 0x06	; 6
    1aa4:	8c 91       	ld	r24, X
    1aa6:	16 97       	sbiw	r26, 0x06	; 6
    1aa8:	80 93 f1 00 	sts	0x00F1, r24
    1aac:	87 ef       	ldi	r24, 0xF7	; 247
    1aae:	82 0f       	add	r24, r18
    1ab0:	84 30       	cpi	r24, 0x04	; 4
    1ab2:	80 f4       	brcc	.+32     	;  0x1ad4
    1ab4:	8f e7       	ldi	r24, 0x7F	; 127
    1ab6:	88 bd       	out	0x28, r24	; 40
    1ab8:	30 93 fb 00 	sts	0x00FB, r19
    1abc:	20 93 f2 00 	sts	0x00F2, r18
    1ac0:	2a 30       	cpi	r18, 0x0A	; 10
    1ac2:	51 f0       	breq	.+20     	;  0x1ad8
    1ac4:	81 e0       	ldi	r24, 0x01	; 1
    1ac6:	80 93 fc 00 	sts	0x00FC, r24
    1aca:	06 c0       	rjmp	.+12     	;  0x1ad8
    1acc:	21 e0       	ldi	r18, 0x01	; 1
    1ace:	77 c0       	rjmp	.+238    	;  0x1bbe
    1ad0:	24 e0       	ldi	r18, 0x04	; 4
    1ad2:	75 c0       	rjmp	.+234    	;  0x1bbe
    1ad4:	20 e0       	ldi	r18, 0x00	; 0
    1ad6:	73 c0       	rjmp	.+230    	;  0x1bbe
    1ad8:	2f ef       	ldi	r18, 0xFF	; 255
    1ada:	68 c0       	rjmp	.+208    	;  0x1bac
    1adc:	12 96       	adiw	r26, 0x02	; 2
    1ade:	9c 91       	ld	r25, X
    1ae0:	12 97       	sbiw	r26, 0x02	; 2
    1ae2:	10 92 07 01 	sts	0x0107, r1
    1ae6:	11 96       	adiw	r26, 0x01	; 1
    1ae8:	8c 91       	ld	r24, X
    1aea:	11 97       	sbiw	r26, 0x01	; 1
    1aec:	81 11       	cpse	r24, r1
    1aee:	06 c0       	rjmp	.+12     	;  0x1afc
    1af0:	10 92 08 01 	sts	0x0108, r1
    1af4:	87 e0       	ldi	r24, 0x07	; 7
    1af6:	91 e0       	ldi	r25, 0x01	; 1
    1af8:	22 e0       	ldi	r18, 0x02	; 2
    1afa:	52 c0       	rjmp	.+164    	;  0x1ba0
    1afc:	85 30       	cpi	r24, 0x05	; 5
    1afe:	19 f4       	brne	.+6      	;  0x1b06
    1b00:	90 93 0f 01 	sts	0x010F, r25
    1b04:	3f c0       	rjmp	.+126    	;  0x1b84
    1b06:	86 30       	cpi	r24, 0x06	; 6
    1b08:	b9 f5       	brne	.+110    	;  0x1b78
    1b0a:	13 96       	adiw	r26, 0x03	; 3
    1b0c:	8c 91       	ld	r24, X
    1b0e:	13 97       	sbiw	r26, 0x03	; 3
    1b10:	81 30       	cpi	r24, 0x01	; 1
    1b12:	19 f4       	brne	.+6      	;  0x1b1a
    1b14:	80 e3       	ldi	r24, 0x30	; 48
    1b16:	95 e1       	ldi	r25, 0x15	; 21
    1b18:	04 c0       	rjmp	.+8      	;  0x1b22
    1b1a:	82 30       	cpi	r24, 0x02	; 2
    1b1c:	41 f4       	brne	.+16     	;  0x1b2e
    1b1e:	8e e1       	ldi	r24, 0x1E	; 30
    1b20:	95 e1       	ldi	r25, 0x15	; 21
    1b22:	90 93 0d 01 	sts	0x010D, r25
    1b26:	80 93 0c 01 	sts	0x010C, r24
    1b2a:	22 e1       	ldi	r18, 0x12	; 18
    1b2c:	21 c0       	rjmp	.+66     	;  0x1b70
    1b2e:	83 30       	cpi	r24, 0x03	; 3
    1b30:	f1 f4       	brne	.+60     	;  0x1b6e
    1b32:	91 11       	cpse	r25, r1
    1b34:	08 c0       	rjmp	.+16     	;  0x1b46
    1b36:	8a e6       	ldi	r24, 0x6A	; 106
    1b38:	95 e1       	ldi	r25, 0x15	; 21
    1b3a:	90 93 0d 01 	sts	0x010D, r25
    1b3e:	80 93 0c 01 	sts	0x010C, r24
    1b42:	24 e0       	ldi	r18, 0x04	; 4
    1b44:	15 c0       	rjmp	.+42     	;  0x1b70
    1b46:	91 30       	cpi	r25, 0x01	; 1
    1b48:	41 f4       	brne	.+16     	;  0x1b5a
    1b4a:	8a e4       	ldi	r24, 0x4A	; 74
    1b4c:	95 e1       	ldi	r25, 0x15	; 21
    1b4e:	90 93 0d 01 	sts	0x010D, r25
    1b52:	80 93 0c 01 	sts	0x010C, r24
    1b56:	20 e2       	ldi	r18, 0x20	; 32
    1b58:	0b c0       	rjmp	.+22     	;  0x1b70
    1b5a:	92 30       	cpi	r25, 0x02	; 2
    1b5c:	41 f4       	brne	.+16     	;  0x1b6e
    1b5e:	82 e4       	ldi	r24, 0x42	; 66
    1b60:	95 e1       	ldi	r25, 0x15	; 21
    1b62:	90 93 0d 01 	sts	0x010D, r25
    1b66:	80 93 0c 01 	sts	0x010C, r24
    1b6a:	28 e0       	ldi	r18, 0x08	; 8
    1b6c:	01 c0       	rjmp	.+2      	;  0x1b70
    1b6e:	20 e0       	ldi	r18, 0x00	; 0
    1b70:	80 e4       	ldi	r24, 0x40	; 64
    1b72:	80 93 fd 00 	sts	0x00FD, r24
    1b76:	18 c0       	rjmp	.+48     	;  0x1ba8
    1b78:	88 30       	cpi	r24, 0x08	; 8
    1b7a:	79 f0       	breq	.+30     	;  0x1b9a
    1b7c:	89 30       	cpi	r24, 0x09	; 9
    1b7e:	31 f4       	brne	.+12     	;  0x1b8c
    1b80:	90 93 11 01 	sts	0x0111, r25
    1b84:	87 e0       	ldi	r24, 0x07	; 7
    1b86:	91 e0       	ldi	r25, 0x01	; 1
    1b88:	20 e0       	ldi	r18, 0x00	; 0
    1b8a:	0a c0       	rjmp	.+20     	;  0x1ba0
    1b8c:	21 e0       	ldi	r18, 0x01	; 1
    1b8e:	8a 30       	cpi	r24, 0x0A	; 10
    1b90:	09 f0       	breq	.+2      	;  0x1b94
    1b92:	20 e0       	ldi	r18, 0x00	; 0
    1b94:	87 e0       	ldi	r24, 0x07	; 7
    1b96:	91 e0       	ldi	r25, 0x01	; 1
    1b98:	03 c0       	rjmp	.+6      	;  0x1ba0
    1b9a:	81 e1       	ldi	r24, 0x11	; 17
    1b9c:	91 e0       	ldi	r25, 0x01	; 1
    1b9e:	21 e0       	ldi	r18, 0x01	; 1
    1ba0:	90 93 0d 01 	sts	0x010D, r25
    1ba4:	80 93 0c 01 	sts	0x010C, r24
    1ba8:	2f 3f       	cpi	r18, 0xFF	; 255
    1baa:	49 f4       	brne	.+18     	;  0x1bbe
    1bac:	8c 91       	ld	r24, X
    1bae:	87 ff       	sbrs	r24, 7
    1bb0:	02 c0       	rjmp	.+4      	;  0x1bb6
    1bb2:	16 96       	adiw	r26, 0x06	; 6
    1bb4:	2c 91       	ld	r18, X
    1bb6:	80 e8       	ldi	r24, 0x80	; 128
    1bb8:	80 93 fd 00 	sts	0x00FD, r24
    1bbc:	0a c0       	rjmp	.+20     	;  0x1bd2
    1bbe:	17 96       	adiw	r26, 0x07	; 7
    1bc0:	8c 91       	ld	r24, X
    1bc2:	17 97       	sbiw	r26, 0x07	; 7
    1bc4:	81 11       	cpse	r24, r1
    1bc6:	05 c0       	rjmp	.+10     	;  0x1bd2
    1bc8:	16 96       	adiw	r26, 0x06	; 6
    1bca:	8c 91       	ld	r24, X
    1bcc:	82 17       	cp	r24, r18
    1bce:	08 f4       	brcc	.+2      	;  0x1bd2
    1bd0:	28 2f       	mov	r18, r24
    1bd2:	20 93 60 00 	sts	0x0060, r18
    1bd6:	3e c0       	rjmp	.+124    	;  0x1c54
    1bd8:	90 91 fd 00 	lds	r25, 0x00FD
    1bdc:	97 ff       	sbrs	r25, 7
    1bde:	3a c0       	rjmp	.+116    	;  0x1c54
    1be0:	90 91 f1 00 	lds	r25, 0x00F1
    1be4:	18 2f       	mov	r17, r24
    1be6:	98 17       	cp	r25, r24
    1be8:	08 f4       	brcc	.+2      	;  0x1bec
    1bea:	19 2f       	mov	r17, r25
    1bec:	09 2f       	mov	r16, r25
    1bee:	01 1b       	sub	r16, r17
    1bf0:	00 93 f1 00 	sts	0x00F1, r16
    1bf4:	10 92 fc 00 	sts	0x00FC, r1
    1bf8:	80 91 f2 00 	lds	r24, 0x00F2
    1bfc:	8a 30       	cpi	r24, 0x0A	; 10
    1bfe:	29 f0       	breq	.+10     	;  0x1c0a
    1c00:	01 11       	cpse	r16, r1
    1c02:	28 c0       	rjmp	.+80     	;  0x1c54
    1c04:	10 92 60 00 	sts	0x0060, r1
    1c08:	25 c0       	rjmp	.+74     	;  0x1c54
    1c0a:	fa 2e       	mov	r15, r26
    1c0c:	ca 2f       	mov	r28, r26
    1c0e:	db 2f       	mov	r29, r27
    1c10:	8c 2f       	mov	r24, r28
    1c12:	8f 19       	sub	r24, r15
    1c14:	81 17       	cp	r24, r17
    1c16:	a0 f7       	brcc	.-24     	;  0x1c00
    1c18:	80 91 f9 00 	lds	r24, 0x00F9
    1c1c:	90 91 fa 00 	lds	r25, 0x00FA
    1c20:	80 34       	cpi	r24, 0x40	; 64
    1c22:	91 05       	cpc	r25, r1
    1c24:	90 f4       	brcc	.+36     	;  0x1c4a
    1c26:	21 e0       	ldi	r18, 0x01	; 1
    1c28:	20 93 65 00 	sts	0x0065, r18
    1c2c:	fc 01       	movw	r30, r24
    1c2e:	ee 0f       	add	r30, r30
    1c30:	ff 1f       	adc	r31, r31
    1c32:	ea 59       	subi	r30, 0x9A	; 154
    1c34:	ff 4f       	sbci	r31, 0xFF	; 255
    1c36:	28 81       	ld	r18, Y
    1c38:	39 81       	ldd	r19, Y+1	; 0x01
    1c3a:	31 83       	std	Z+1, r19	; 0x01
    1c3c:	20 83       	st	Z, r18
    1c3e:	02 96       	adiw	r24, 0x02	; 2
    1c40:	90 93 fa 00 	sts	0x00FA, r25
    1c44:	80 93 f9 00 	sts	0x00F9, r24
    1c48:	03 c0       	rjmp	.+6      	;  0x1c50
    1c4a:	88 81       	ld	r24, Y
    1c4c:	99 81       	ldd	r25, Y+1	; 0x01
    1c4e:	3c de       	rcall	.-904    	;  0x18c8
    1c50:	22 96       	adiw	r28, 0x02	; 2
    1c52:	de cf       	rjmp	.-68     	;  0x1c10
    1c54:	10 92 0e 01 	sts	0x010E, r1
    1c58:	80 91 61 00 	lds	r24, 0x0061
    1c5c:	84 ff       	sbrs	r24, 4
    1c5e:	7b c0       	rjmp	.+246    	;  0x1d56
    1c60:	80 91 60 00 	lds	r24, 0x0060
    1c64:	8f 3f       	cpi	r24, 0xFF	; 255
    1c66:	09 f4       	brne	.+2      	;  0x1c6a
    1c68:	76 c0       	rjmp	.+236    	;  0x1d56
    1c6a:	18 2f       	mov	r17, r24
    1c6c:	89 30       	cpi	r24, 0x09	; 9
    1c6e:	08 f0       	brcs	.+2      	;  0x1c72
    1c70:	18 e0       	ldi	r17, 0x08	; 8
    1c72:	81 1b       	sub	r24, r17
    1c74:	80 93 60 00 	sts	0x0060, r24
    1c78:	80 91 fe 00 	lds	r24, 0x00FE
    1c7c:	98 e8       	ldi	r25, 0x88	; 136
    1c7e:	89 27       	eor	r24, r25
    1c80:	80 93 fe 00 	sts	0x00FE, r24
    1c84:	11 23       	and	r17, r17
    1c86:	09 f4       	brne	.+2      	;  0x1c8a
    1c88:	5a c0       	rjmp	.+180    	;  0x1d3e
    1c8a:	80 91 fd 00 	lds	r24, 0x00FD
    1c8e:	87 ff       	sbrs	r24, 7
    1c90:	38 c0       	rjmp	.+112    	;  0x1d02
    1c92:	80 91 f1 00 	lds	r24, 0x00F1
    1c96:	81 17       	cp	r24, r17
    1c98:	08 f4       	brcc	.+2      	;  0x1c9c
    1c9a:	18 2f       	mov	r17, r24
    1c9c:	81 1b       	sub	r24, r17
    1c9e:	80 93 f1 00 	sts	0x00F1, r24
    1ca2:	30 91 f2 00 	lds	r19, 0x00F2
    1ca6:	e0 91 f9 00 	lds	r30, 0x00F9
    1caa:	f0 91 fa 00 	lds	r31, 0x00FA
    1cae:	20 e0       	ldi	r18, 0x00	; 0
    1cb0:	af ef       	ldi	r26, 0xFF	; 255
    1cb2:	b0 e0       	ldi	r27, 0x00	; 0
    1cb4:	21 17       	cp	r18, r17
    1cb6:	00 f5       	brcc	.+64     	;  0x1cf8
    1cb8:	3b 30       	cpi	r19, 0x0B	; 11
    1cba:	09 f4       	brne	.+2      	;  0x1cbe
    1cbc:	ff cf       	rjmp	.-2      	;  0x1cbc
    1cbe:	39 30       	cpi	r19, 0x09	; 9
    1cc0:	d9 f7       	brne	.-10     	;  0x1cb8
    1cc2:	e0 34       	cpi	r30, 0x40	; 64
    1cc4:	f1 05       	cpc	r31, r1
    1cc6:	60 f4       	brcc	.+24     	;  0x1ce0
    1cc8:	ef 01       	movw	r28, r30
    1cca:	cc 0f       	add	r28, r28
    1ccc:	dd 1f       	adc	r29, r29
    1cce:	ca 59       	subi	r28, 0x9A	; 154
    1cd0:	df 4f       	sbci	r29, 0xFF	; 255
    1cd2:	88 81       	ld	r24, Y
    1cd4:	99 81       	ldd	r25, Y+1	; 0x01
    1cd6:	8d 93       	st	X+, r24
    1cd8:	9d 93       	st	X+, r25
    1cda:	2e 5f       	subi	r18, 0xFE	; 254
    1cdc:	32 96       	adiw	r30, 0x02	; 2
    1cde:	ea cf       	rjmp	.-44     	;  0x1cb4
    1ce0:	ec 3f       	cpi	r30, 0xFC	; 252
    1ce2:	84 e1       	ldi	r24, 0x14	; 20
    1ce4:	f8 07       	cpc	r31, r24
    1ce6:	10 f0       	brcs	.+4      	;  0x1cec
    1ce8:	8f ef       	ldi	r24, 0xFF	; 255
    1cea:	01 c0       	rjmp	.+2      	;  0x1cee
    1cec:	84 91       	lpm	r24, Z
    1cee:	8c 93       	st	X, r24
    1cf0:	11 96       	adiw	r26, 0x01	; 1
    1cf2:	2f 5f       	subi	r18, 0xFF	; 255
    1cf4:	31 96       	adiw	r30, 0x01	; 1
    1cf6:	de cf       	rjmp	.-68     	;  0x1cb4
    1cf8:	f0 93 fa 00 	sts	0x00FA, r31
    1cfc:	e0 93 f9 00 	sts	0x00F9, r30
    1d00:	1e c0       	rjmp	.+60     	;  0x1d3e
    1d02:	e0 91 0c 01 	lds	r30, 0x010C
    1d06:	f0 91 0d 01 	lds	r31, 0x010D
    1d0a:	86 ff       	sbrs	r24, 6
    1d0c:	0b c0       	rjmp	.+22     	;  0x1d24
    1d0e:	8f ef       	ldi	r24, 0xFF	; 255
    1d10:	90 e0       	ldi	r25, 0x00	; 0
    1d12:	dc 01       	movw	r26, r24
    1d14:	24 91       	lpm	r18, Z
    1d16:	2d 93       	st	X+, r18
    1d18:	31 96       	adiw	r30, 0x01	; 1
    1d1a:	21 2f       	mov	r18, r17
    1d1c:	28 0f       	add	r18, r24
    1d1e:	2a 13       	cpse	r18, r26
    1d20:	f9 cf       	rjmp	.-14     	;  0x1d14
    1d22:	09 c0       	rjmp	.+18     	;  0x1d36
    1d24:	8f ef       	ldi	r24, 0xFF	; 255
    1d26:	90 e0       	ldi	r25, 0x00	; 0
    1d28:	dc 01       	movw	r26, r24
    1d2a:	21 91       	ld	r18, Z+
    1d2c:	2d 93       	st	X+, r18
    1d2e:	21 2f       	mov	r18, r17
    1d30:	28 0f       	add	r18, r24
    1d32:	2a 13       	cpse	r18, r26
    1d34:	fa cf       	rjmp	.-12     	;  0x1d2a
    1d36:	f0 93 0d 01 	sts	0x010D, r31
    1d3a:	e0 93 0c 01 	sts	0x010C, r30
    1d3e:	61 2f       	mov	r22, r17
    1d40:	8f ef       	ldi	r24, 0xFF	; 255
    1d42:	90 e0       	ldi	r25, 0x00	; 0
    1d44:	50 dc       	rcall	.-1888   	;  0x15e6
    1d46:	1c 5f       	subi	r17, 0xFC	; 252
    1d48:	1c 30       	cpi	r17, 0x0C	; 12
    1d4a:	19 f0       	breq	.+6      	;  0x1d52
    1d4c:	8f ef       	ldi	r24, 0xFF	; 255
    1d4e:	80 93 60 00 	sts	0x0060, r24
    1d52:	10 93 61 00 	sts	0x0061, r17
    1d56:	84 e1       	ldi	r24, 0x14	; 20
    1d58:	96 b3       	in	r25, 0x16	; 22
    1d5a:	98 71       	andi	r25, 0x18	; 24
    1d5c:	31 f4       	brne	.+12     	;  0x1d6a
    1d5e:	81 50       	subi	r24, 0x01	; 1
    1d60:	d9 f7       	brne	.-10     	;  0x1d58
    1d62:	10 92 0f 01 	sts	0x010F, r1
    1d66:	10 92 09 01 	sts	0x0109, r1
    1d6a:	c1 e0       	ldi	r28, 0x01	; 1
    1d6c:	81 11       	cpse	r24, r1
    1d6e:	c0 e0       	ldi	r28, 0x00	; 0
    1d70:	80 91 63 00 	lds	r24, 0x0063
    1d74:	8c 17       	cp	r24, r28
    1d76:	39 f0       	breq	.+14     	;  0x1d86
    1d78:	c1 11       	cpse	r28, r1
    1d7a:	03 c0       	rjmp	.+6      	;  0x1d82
    1d7c:	f8 94       	cli
    1d7e:	f9 d0       	rcall	.+498    	;  0x1f72
    1d80:	78 94       	sei
    1d82:	c0 93 63 00 	sts	0x0063, r28
    1d86:	df 91       	pop	r29
    1d88:	cf 91       	pop	r28
    1d8a:	1f 91       	pop	r17
    1d8c:	0f 91       	pop	r16
    1d8e:	ff 90       	pop	r15
    1d90:	08 95       	ret
    1d92:	c1 b7       	in	r28, 0x31	; 49
    1d94:	b9 9a       	sbi	0x17, 1	; 23
    1d96:	83 e2       	ldi	r24, 0x23	; 35
    1d98:	8a bd       	out	0x2a, r24	; 42
    1d9a:	81 e0       	ldi	r24, 0x01	; 1
    1d9c:	83 bf       	out	0x33, r24	; 51
    1d9e:	ac 9a       	sbi	0x15, 4	; 21
    1da0:	8b b7       	in	r24, 0x3b	; 59
    1da2:	80 62       	ori	r24, 0x20	; 32
    1da4:	8b bf       	out	0x3b, r24	; 59
    1da6:	bb 9a       	sbi	0x17, 3	; 23
    1da8:	2f e1       	ldi	r18, 0x1F	; 31
    1daa:	32 e1       	ldi	r19, 0x12	; 18
    1dac:	8a e0       	ldi	r24, 0x0A	; 10
    1dae:	21 50       	subi	r18, 0x01	; 1
    1db0:	30 40       	sbci	r19, 0x00	; 0
    1db2:	80 40       	sbci	r24, 0x00	; 0
    1db4:	e1 f7       	brne	.-8      	;  0x1dae
    1db6:	00 c0       	rjmp	.+0      	;  0x1db8
    1db8:	00 00       	nop
    1dba:	bb 98       	cbi	0x17, 3	; 23
    1dbc:	78 94       	sei
    1dbe:	e8 dd       	rcall	.-1072   	;  0x1990
    1dc0:	80 91 e8 00 	lds	r24, 0x00E8
    1dc4:	88 23       	and	r24, r24
    1dc6:	21 f1       	breq	.+72     	;  0x1e10
    1dc8:	82 e0       	ldi	r24, 0x02	; 2
    1dca:	90 e0       	ldi	r25, 0x00	; 0
    1dcc:	90 93 f8 00 	sts	0x00F8, r25
    1dd0:	80 93 f7 00 	sts	0x00F7, r24
    1dd4:	13 c0       	rjmp	.+38     	;  0x1dfc
    1dd6:	cf 01       	movw	r24, r30
    1dd8:	8f 73       	andi	r24, 0x3F	; 63
    1dda:	99 27       	eor	r25, r25
    1ddc:	89 2b       	or	r24, r25
    1dde:	21 f4       	brne	.+8      	;  0x1de8
    1de0:	83 e0       	ldi	r24, 0x03	; 3
    1de2:	80 93 57 00 	sts	0x0057, r24
    1de6:	e8 95       	spm
    1de8:	d3 dd       	rcall	.-1114   	;  0x1990
    1dea:	80 91 f7 00 	lds	r24, 0x00F7
    1dee:	90 91 f8 00 	lds	r25, 0x00F8
    1df2:	02 96       	adiw	r24, 0x02	; 2
    1df4:	90 93 f8 00 	sts	0x00F8, r25
    1df8:	80 93 f7 00 	sts	0x00F7, r24
    1dfc:	e0 91 f7 00 	lds	r30, 0x00F7
    1e00:	f0 91 f8 00 	lds	r31, 0x00F8
    1e04:	e1 15       	cp	r30, r1
    1e06:	95 e1       	ldi	r25, 0x15	; 21
    1e08:	f9 07       	cpc	r31, r25
    1e0a:	28 f3       	brcs	.-54     	;  0x1dd6
    1e0c:	10 92 e8 00 	sts	0x00E8, r1
    1e10:	80 91 e7 00 	lds	r24, 0x00E7
    1e14:	88 23       	and	r24, r24
    1e16:	29 f0       	breq	.+10     	;  0x1e22
    1e18:	bb dd       	rcall	.-1162   	;  0x1990
    1e1a:	75 dd       	rcall	.-1302   	;  0x1906
    1e1c:	10 92 e7 00 	sts	0x00E7, r1
    1e20:	b7 dd       	rcall	.-1170   	;  0x1990
    1e22:	80 91 62 00 	lds	r24, 0x0062
    1e26:	88 23       	and	r24, r24
    1e28:	41 f0       	breq	.+16     	;  0x1e3a
    1e2a:	80 91 fc 00 	lds	r24, 0x00FC
    1e2e:	81 11       	cpse	r24, r1
    1e30:	04 c0       	rjmp	.+8      	;  0x1e3a
    1e32:	80 91 fb 00 	lds	r24, 0x00FB
    1e36:	81 11       	cpse	r24, r1
    1e38:	c2 cf       	rjmp	.-124    	;  0x1dbe
    1e3a:	80 91 62 00 	lds	r24, 0x0062
    1e3e:	88 23       	and	r24, r24
    1e40:	71 f0       	breq	.+28     	;  0x1e5e
    1e42:	80 91 e6 00 	lds	r24, 0x00E6
    1e46:	81 11       	cpse	r24, r1
    1e48:	0a c0       	rjmp	.+20     	;  0x1e5e
    1e4a:	88 b5       	in	r24, 0x28	; 40
    1e4c:	80 5f       	subi	r24, 0xF0	; 240
    1e4e:	88 bd       	out	0x28, r24	; 40
    1e50:	88 b5       	in	r24, 0x28	; 40
    1e52:	81 11       	cpse	r24, r1
    1e54:	04 c0       	rjmp	.+8      	;  0x1e5e
    1e56:	8a b5       	in	r24, 0x2a	; 42
    1e58:	90 e1       	ldi	r25, 0x10	; 16
    1e5a:	89 27       	eor	r24, r25
    1e5c:	8a bd       	out	0x2a, r24	; 42
    1e5e:	80 91 e6 00 	lds	r24, 0x00E6
    1e62:	8f 5f       	subi	r24, 0xFF	; 255
    1e64:	80 93 e6 00 	sts	0x00E6, r24
    1e68:	8e ec       	ldi	r24, 0xCE	; 206
    1e6a:	90 e0       	ldi	r25, 0x00	; 0
    1e6c:	01 97       	sbiw	r24, 0x01	; 1
    1e6e:	f1 f7       	brne	.-4      	;  0x1e6c
    1e70:	80 91 f4 00 	lds	r24, 0x00F4
    1e74:	90 91 f5 00 	lds	r25, 0x00F5
    1e78:	01 96       	adiw	r24, 0x01	; 1
    1e7a:	90 93 f5 00 	sts	0x00F5, r25
    1e7e:	80 93 f4 00 	sts	0x00F4, r24
    1e82:	20 91 f3 00 	lds	r18, 0x00F3
    1e86:	00 97       	sbiw	r24, 0x00	; 0
    1e88:	11 f4       	brne	.+4      	;  0x1e8e
    1e8a:	2f 5f       	subi	r18, 0xFF	; 255
    1e8c:	00 c0       	rjmp	.+0      	;  0x1e8e
    1e8e:	20 93 f3 00 	sts	0x00F3, r18
    1e92:	30 91 62 00 	lds	r19, 0x0062
    1e96:	31 11       	cpse	r19, r1
    1e98:	05 c0       	rjmp	.+10     	;  0x1ea4
    1e9a:	81 32       	cpi	r24, 0x21	; 33
    1e9c:	3e e4       	ldi	r19, 0x4E	; 78
    1e9e:	93 07       	cpc	r25, r19
    1ea0:	08 f0       	brcs	.+2      	;  0x1ea4
    1ea2:	52 c0       	rjmp	.+164    	;  0x1f48
    1ea4:	30 91 fc 00 	lds	r19, 0x00FC
    1ea8:	33 23       	and	r19, r19
    1eaa:	21 f0       	breq	.+8      	;  0x1eb4
    1eac:	81 31       	cpi	r24, 0x11	; 17
    1eae:	97 42       	sbci	r25, 0x27	; 39
    1eb0:	08 f0       	brcs	.+2      	;  0x1eb4
    1eb2:	4a c0       	rjmp	.+148    	;  0x1f48
    1eb4:	80 91 62 00 	lds	r24, 0x0062
    1eb8:	88 23       	and	r24, r24
    1eba:	09 f4       	brne	.+2      	;  0x1ebe
    1ebc:	80 cf       	rjmp	.-256    	;  0x1dbe
    1ebe:	80 91 fb 00 	lds	r24, 0x00FB
    1ec2:	81 11       	cpse	r24, r1
    1ec4:	7c cf       	rjmp	.-264    	;  0x1dbe
    1ec6:	23 30       	cpi	r18, 0x03	; 3
    1ec8:	08 f4       	brcc	.+2      	;  0x1ecc
    1eca:	79 cf       	rjmp	.-270    	;  0x1dbe
    1ecc:	3d c0       	rjmp	.+122    	;  0x1f48
    1ece:	80 91 64 00 	lds	r24, 0x0064
    1ed2:	81 11       	cpse	r24, r1
    1ed4:	41 c0       	rjmp	.+130    	;  0x1f58
    1ed6:	8c ef       	ldi	r24, 0xFC	; 252
    1ed8:	94 e1       	ldi	r25, 0x14	; 20
    1eda:	90 93 fa 00 	sts	0x00FA, r25
    1ede:	80 93 f9 00 	sts	0x00F9, r24
    1ee2:	81 e0       	ldi	r24, 0x01	; 1
    1ee4:	80 93 f6 00 	sts	0x00F6, r24
    1ee8:	0e dd       	rcall	.-1508   	;  0x1906
    1eea:	36 c0       	rjmp	.+108    	;  0x1f58
    1eec:	df 01       	movw	r26, r30
    1eee:	aa 0f       	add	r26, r26
    1ef0:	bb 1f       	adc	r27, r27
    1ef2:	aa 59       	subi	r26, 0x9A	; 154
    1ef4:	bf 4f       	sbci	r27, 0xFF	; 255
    1ef6:	8d 91       	ld	r24, X+
    1ef8:	9c 91       	ld	r25, X
    1efa:	9f 01       	movw	r18, r30
    1efc:	2b 7f       	andi	r18, 0xFB	; 251
    1efe:	23 2b       	or	r18, r19
    1f00:	29 f4       	brne	.+10     	;  0x1f0c
    1f02:	fb 5e       	subi	r31, 0xEB	; 235
    1f04:	85 91       	lpm	r24, Z+
    1f06:	94 91       	lpm	r25, Z
    1f08:	80 58       	subi	r24, 0x80	; 128
    1f0a:	95 4f       	sbci	r25, 0xF5	; 245
    1f0c:	dd dc       	rcall	.-1606   	;  0x18c8
    1f0e:	e0 91 f9 00 	lds	r30, 0x00F9
    1f12:	f0 91 fa 00 	lds	r31, 0x00FA
    1f16:	e0 34       	cpi	r30, 0x40	; 64
    1f18:	f1 05       	cpc	r31, r1
    1f1a:	40 f3       	brcs	.-48     	;  0x1eec
    1f1c:	f4 dc       	rcall	.-1560   	;  0x1906
    1f1e:	10 92 5f 02 	sts	0x025F, r1
    1f22:	17 ba       	out	0x17, r1	; 23
    1f24:	13 be       	out	0x33, r1	; 51
    1f26:	1a bc       	out	0x2a, r1	; 42
    1f28:	03 c0       	rjmp	.+6      	;  0x1f30
    1f2a:	81 b7       	in	r24, 0x31	; 49
    1f2c:	8f 5f       	subi	r24, 0xFF	; 255
    1f2e:	81 bf       	out	0x31, r24	; 49
    1f30:	81 b7       	in	r24, 0x31	; 49
    1f32:	8c 17       	cp	r24, r28
    1f34:	d0 f3       	brcs	.-12     	;  0x1f2a
    1f36:	03 c0       	rjmp	.+6      	;  0x1f3e
    1f38:	81 b7       	in	r24, 0x31	; 49
    1f3a:	81 50       	subi	r24, 0x01	; 1
    1f3c:	81 bf       	out	0x31, r24	; 49
    1f3e:	81 b7       	in	r24, 0x31	; 49
    1f40:	c8 17       	cp	r28, r24
    1f42:	d0 f3       	brcs	.-12     	;  0x1f38
    1f44:	dc ca       	rjmp	.-2632   	;  0x14fe
    1f46:	13 c0       	rjmp	.+38     	;  0x1f6e
    1f48:	15 ba       	out	0x15, r1	; 21
    1f4a:	1b be       	out	0x3b, r1	; 59
    1f4c:	f8 94       	cli
    1f4e:	80 91 65 00 	lds	r24, 0x0065
    1f52:	81 11       	cpse	r24, r1
    1f54:	bc cf       	rjmp	.-136    	;  0x1ece
    1f56:	e3 cf       	rjmp	.-58     	;  0x1f1e
    1f58:	e0 e0       	ldi	r30, 0x00	; 0
    1f5a:	f0 e0       	ldi	r31, 0x00	; 0
    1f5c:	83 e0       	ldi	r24, 0x03	; 3
    1f5e:	80 93 57 00 	sts	0x0057, r24
    1f62:	e8 95       	spm
    1f64:	10 92 fa 00 	sts	0x00FA, r1
    1f68:	10 92 f9 00 	sts	0x00F9, r1
    1f6c:	d0 cf       	rjmp	.-96     	;  0x1f0e
    1f6e:	80 e0       	ldi	r24, 0x00	; 0
    1f70:	90 e0       	ldi	r25, 0x00	; 0
    1f72:	df 92       	push	r13
    1f74:	ef 92       	push	r14
    1f76:	ff 92       	push	r15
    1f78:	0f 93       	push	r16
    1f7a:	1f 93       	push	r17
    1f7c:	cf 93       	push	r28
    1f7e:	df 93       	push	r29
    1f80:	08 e0       	ldi	r16, 0x08	; 8
    1f82:	10 e0       	ldi	r17, 0x00	; 0
    1f84:	f1 2c       	mov	r15, r1
    1f86:	80 e8       	ldi	r24, 0x80	; 128
    1f88:	e8 2e       	mov	r14, r24
    1f8a:	df 2c       	mov	r13, r15
    1f8c:	de 0c       	add	r13, r14
    1f8e:	d1 be       	out	0x31, r13	; 49
    1f90:	2e db       	rcall	.-2468   	;  0x15ee
    1f92:	ec 01       	movw	r28, r24
    1f94:	c4 33       	cpi	r28, 0x34	; 52
    1f96:	89 e0       	ldi	r24, 0x09	; 9
    1f98:	d8 07       	cpc	r29, r24
    1f9a:	0c f4       	brge	.+2      	;  0x1f9e
    1f9c:	fd 2c       	mov	r15, r13
    1f9e:	e6 94       	lsr	r14
    1fa0:	01 50       	subi	r16, 0x01	; 1
    1fa2:	11 09       	sbc	r17, r1
    1fa4:	01 15       	cp	r16, r1
    1fa6:	11 05       	cpc	r17, r1
    1fa8:	81 f7       	brne	.-32     	;  0x1f8a
    1faa:	1f 2d       	mov	r17, r15
    1fac:	8f ef       	ldi	r24, 0xFF	; 255
    1fae:	8f 0d       	add	r24, r15
    1fb0:	81 bf       	out	0x31, r24	; 49
    1fb2:	21 b7       	in	r18, 0x31	; 49
    1fb4:	30 e0       	ldi	r19, 0x00	; 0
    1fb6:	81 2f       	mov	r24, r17
    1fb8:	90 e0       	ldi	r25, 0x00	; 0
    1fba:	01 96       	adiw	r24, 0x01	; 1
    1fbc:	82 17       	cp	r24, r18
    1fbe:	93 07       	cpc	r25, r19
    1fc0:	84 f0       	brlt	.+32     	;  0x1fe2
    1fc2:	15 db       	rcall	.-2518   	;  0x15ee
    1fc4:	84 53       	subi	r24, 0x34	; 52
    1fc6:	99 40       	sbci	r25, 0x09	; 9
    1fc8:	97 ff       	sbrs	r25, 7
    1fca:	03 c0       	rjmp	.+6      	;  0x1fd2
    1fcc:	91 95       	neg	r25
    1fce:	81 95       	neg	r24
    1fd0:	91 09       	sbc	r25, r1
    1fd2:	8c 17       	cp	r24, r28
    1fd4:	9d 07       	cpc	r25, r29
    1fd6:	14 f4       	brge	.+4      	;  0x1fdc
    1fd8:	f1 b6       	in	r15, 0x31	; 49
    1fda:	ec 01       	movw	r28, r24
    1fdc:	81 b7       	in	r24, 0x31	; 49
    1fde:	8f 5f       	subi	r24, 0xFF	; 255
    1fe0:	e7 cf       	rjmp	.-50     	;  0x1fb0
    1fe2:	f1 be       	out	0x31, r15	; 49
    1fe4:	df 91       	pop	r29
    1fe6:	cf 91       	pop	r28
    1fe8:	1f 91       	pop	r17
    1fea:	0f 91       	pop	r16
    1fec:	ff 90       	pop	r15
    1fee:	ef 90       	pop	r14
    1ff0:	df 90       	pop	r13
    1ff2:	08 95       	ret
    1ff4:	f8 94       	cli
    1ff6:	ff cf       	rjmp	.-2      	;  0x1ff6
    1ff8:	ff 5a       	subi	r31, 0xAF	; 175
